ARM GAS  C:\Users\IEUser\AppData\Local\Temp\cc2BL4O6.s 			page 1


   1              		.syntax unified
   2              		.cpu cortex-m3
   3              		.fpu softvfp
   4              		.eabi_attribute 20, 1
   5              		.eabi_attribute 21, 1
   6              		.eabi_attribute 23, 3
   7              		.eabi_attribute 24, 1
   8              		.eabi_attribute 25, 1
   9              		.eabi_attribute 26, 1
  10              		.eabi_attribute 30, 6
  11              		.eabi_attribute 34, 1
  12              		.eabi_attribute 18, 4
  13              		.thumb
  14              		.file	"Amp_PM.c"
  15              		.text
  16              	.Ltext0:
  17              		.cfi_sections	.debug_frame
  18              		.bss
  19              		.align	2
  20              	Amp_backup:
  21 0000 00000000 		.space	4
  22              		.section	.text.Amp_SaveConfig,"ax",%progbits
  23              		.align	2
  24              		.global	Amp_SaveConfig
  25              		.thumb
  26              		.thumb_func
  27              		.type	Amp_SaveConfig, %function
  28              	Amp_SaveConfig:
  29              	.LFB0:
  30              		.file 1 ".\\Generated_Source\\PSoC5\\Amp_PM.c"
   1:.\Generated_Source\PSoC5/Amp_PM.c **** /*******************************************************************************
   2:.\Generated_Source\PSoC5/Amp_PM.c **** * File Name: Amp_PM.c  
   3:.\Generated_Source\PSoC5/Amp_PM.c **** * Version 2.0
   4:.\Generated_Source\PSoC5/Amp_PM.c **** *
   5:.\Generated_Source\PSoC5/Amp_PM.c **** * Description:
   6:.\Generated_Source\PSoC5/Amp_PM.c **** *  This file provides the power manager source code to the API for PGA 
   7:.\Generated_Source\PSoC5/Amp_PM.c **** *  Component.
   8:.\Generated_Source\PSoC5/Amp_PM.c **** *
   9:.\Generated_Source\PSoC5/Amp_PM.c **** * Note:
  10:.\Generated_Source\PSoC5/Amp_PM.c **** *
  11:.\Generated_Source\PSoC5/Amp_PM.c **** ********************************************************************************
  12:.\Generated_Source\PSoC5/Amp_PM.c **** * Copyright 2008-2012, Cypress Semiconductor Corporation.  All rights reserved.
  13:.\Generated_Source\PSoC5/Amp_PM.c **** * You may use this file only in accordance with the license, terms, conditions, 
  14:.\Generated_Source\PSoC5/Amp_PM.c **** * disclaimers, and limitations in the end user license agreement accompanying 
  15:.\Generated_Source\PSoC5/Amp_PM.c **** * the software package with which this file was provided.
  16:.\Generated_Source\PSoC5/Amp_PM.c **** *******************************************************************************/
  17:.\Generated_Source\PSoC5/Amp_PM.c **** 
  18:.\Generated_Source\PSoC5/Amp_PM.c **** #include "Amp.h"
  19:.\Generated_Source\PSoC5/Amp_PM.c **** 
  20:.\Generated_Source\PSoC5/Amp_PM.c **** static Amp_BACKUP_STRUCT  Amp_backup;
  21:.\Generated_Source\PSoC5/Amp_PM.c **** 
  22:.\Generated_Source\PSoC5/Amp_PM.c **** 
  23:.\Generated_Source\PSoC5/Amp_PM.c **** /*******************************************************************************
  24:.\Generated_Source\PSoC5/Amp_PM.c **** * Function Name: Amp_SaveConfig
  25:.\Generated_Source\PSoC5/Amp_PM.c **** ********************************************************************************
  26:.\Generated_Source\PSoC5/Amp_PM.c **** *
  27:.\Generated_Source\PSoC5/Amp_PM.c **** * Summary:
ARM GAS  C:\Users\IEUser\AppData\Local\Temp\cc2BL4O6.s 			page 2


  28:.\Generated_Source\PSoC5/Amp_PM.c **** *  Save the current user register configuration.
  29:.\Generated_Source\PSoC5/Amp_PM.c **** *
  30:.\Generated_Source\PSoC5/Amp_PM.c **** * Parameters:
  31:.\Generated_Source\PSoC5/Amp_PM.c **** *  void
  32:.\Generated_Source\PSoC5/Amp_PM.c **** *
  33:.\Generated_Source\PSoC5/Amp_PM.c **** * Return:
  34:.\Generated_Source\PSoC5/Amp_PM.c **** *  void
  35:.\Generated_Source\PSoC5/Amp_PM.c **** *
  36:.\Generated_Source\PSoC5/Amp_PM.c **** *******************************************************************************/
  37:.\Generated_Source\PSoC5/Amp_PM.c **** void Amp_SaveConfig(void) 
  38:.\Generated_Source\PSoC5/Amp_PM.c **** {
  31              		.loc 1 38 0
  32              		.cfi_startproc
  33              		@ args = 0, pretend = 0, frame = 0
  34              		@ frame_needed = 1, uses_anonymous_args = 0
  35              		@ link register save eliminated.
  36 0000 80B4     		push	{r7}
  37              		.cfi_def_cfa_offset 4
  38              		.cfi_offset 7, -4
  39 0002 00AF     		add	r7, sp, #0
  40              		.cfi_def_cfa_register 7
  39:.\Generated_Source\PSoC5/Amp_PM.c ****     /* Nothing to save as registers are System reset on retention flops */
  40:.\Generated_Source\PSoC5/Amp_PM.c **** }
  41              		.loc 1 40 0
  42 0004 BD46     		mov	sp, r7
  43              		@ sp needed
  44 0006 5DF8047B 		ldr	r7, [sp], #4
  45 000a 7047     		bx	lr
  46              		.cfi_endproc
  47              	.LFE0:
  48              		.size	Amp_SaveConfig, .-Amp_SaveConfig
  49              		.section	.text.Amp_RestoreConfig,"ax",%progbits
  50              		.align	2
  51              		.global	Amp_RestoreConfig
  52              		.thumb
  53              		.thumb_func
  54              		.type	Amp_RestoreConfig, %function
  55              	Amp_RestoreConfig:
  56              	.LFB1:
  41:.\Generated_Source\PSoC5/Amp_PM.c **** 
  42:.\Generated_Source\PSoC5/Amp_PM.c **** 
  43:.\Generated_Source\PSoC5/Amp_PM.c **** /*******************************************************************************  
  44:.\Generated_Source\PSoC5/Amp_PM.c **** * Function Name: Amp_RestoreConfig
  45:.\Generated_Source\PSoC5/Amp_PM.c **** ********************************************************************************
  46:.\Generated_Source\PSoC5/Amp_PM.c **** *
  47:.\Generated_Source\PSoC5/Amp_PM.c **** * Summary:
  48:.\Generated_Source\PSoC5/Amp_PM.c **** *  Restore the register configurations.
  49:.\Generated_Source\PSoC5/Amp_PM.c **** *
  50:.\Generated_Source\PSoC5/Amp_PM.c **** * Parameters:
  51:.\Generated_Source\PSoC5/Amp_PM.c **** *  void
  52:.\Generated_Source\PSoC5/Amp_PM.c **** *
  53:.\Generated_Source\PSoC5/Amp_PM.c **** * Return:
  54:.\Generated_Source\PSoC5/Amp_PM.c **** *  void
  55:.\Generated_Source\PSoC5/Amp_PM.c **** *
  56:.\Generated_Source\PSoC5/Amp_PM.c **** *******************************************************************************/
  57:.\Generated_Source\PSoC5/Amp_PM.c **** void Amp_RestoreConfig(void) 
  58:.\Generated_Source\PSoC5/Amp_PM.c **** {
ARM GAS  C:\Users\IEUser\AppData\Local\Temp\cc2BL4O6.s 			page 3


  57              		.loc 1 58 0
  58              		.cfi_startproc
  59              		@ args = 0, pretend = 0, frame = 0
  60              		@ frame_needed = 1, uses_anonymous_args = 0
  61              		@ link register save eliminated.
  62 0000 80B4     		push	{r7}
  63              		.cfi_def_cfa_offset 4
  64              		.cfi_offset 7, -4
  65 0002 00AF     		add	r7, sp, #0
  66              		.cfi_def_cfa_register 7
  59:.\Generated_Source\PSoC5/Amp_PM.c ****     /* Nothing to restore */
  60:.\Generated_Source\PSoC5/Amp_PM.c **** }
  67              		.loc 1 60 0
  68 0004 BD46     		mov	sp, r7
  69              		@ sp needed
  70 0006 5DF8047B 		ldr	r7, [sp], #4
  71 000a 7047     		bx	lr
  72              		.cfi_endproc
  73              	.LFE1:
  74              		.size	Amp_RestoreConfig, .-Amp_RestoreConfig
  75              		.section	.text.Amp_Sleep,"ax",%progbits
  76              		.align	2
  77              		.global	Amp_Sleep
  78              		.thumb
  79              		.thumb_func
  80              		.type	Amp_Sleep, %function
  81              	Amp_Sleep:
  82              	.LFB2:
  61:.\Generated_Source\PSoC5/Amp_PM.c **** 
  62:.\Generated_Source\PSoC5/Amp_PM.c **** 
  63:.\Generated_Source\PSoC5/Amp_PM.c **** /*******************************************************************************   
  64:.\Generated_Source\PSoC5/Amp_PM.c **** * Function Name: Amp_Sleep
  65:.\Generated_Source\PSoC5/Amp_PM.c **** ********************************************************************************
  66:.\Generated_Source\PSoC5/Amp_PM.c **** *
  67:.\Generated_Source\PSoC5/Amp_PM.c **** * Summary:
  68:.\Generated_Source\PSoC5/Amp_PM.c **** *  Disables block's operation and saves its configuration. Should be called 
  69:.\Generated_Source\PSoC5/Amp_PM.c **** *  just prior to entering sleep.
  70:.\Generated_Source\PSoC5/Amp_PM.c **** *
  71:.\Generated_Source\PSoC5/Amp_PM.c **** * Parameters:
  72:.\Generated_Source\PSoC5/Amp_PM.c **** *  None
  73:.\Generated_Source\PSoC5/Amp_PM.c **** *
  74:.\Generated_Source\PSoC5/Amp_PM.c **** * Return:
  75:.\Generated_Source\PSoC5/Amp_PM.c **** *  None
  76:.\Generated_Source\PSoC5/Amp_PM.c **** *
  77:.\Generated_Source\PSoC5/Amp_PM.c **** * Global variables:
  78:.\Generated_Source\PSoC5/Amp_PM.c **** *  Amp_backup: The structure field 'enableState' is modified 
  79:.\Generated_Source\PSoC5/Amp_PM.c **** *  depending on the enable state of the block before entering to sleep mode.
  80:.\Generated_Source\PSoC5/Amp_PM.c **** *
  81:.\Generated_Source\PSoC5/Amp_PM.c **** *******************************************************************************/
  82:.\Generated_Source\PSoC5/Amp_PM.c **** void Amp_Sleep(void) 
  83:.\Generated_Source\PSoC5/Amp_PM.c **** {
  83              		.loc 1 83 0
  84              		.cfi_startproc
  85              		@ args = 0, pretend = 0, frame = 0
  86              		@ frame_needed = 1, uses_anonymous_args = 0
  87 0000 80B5     		push	{r7, lr}
  88              		.cfi_def_cfa_offset 8
ARM GAS  C:\Users\IEUser\AppData\Local\Temp\cc2BL4O6.s 			page 4


  89              		.cfi_offset 7, -8
  90              		.cfi_offset 14, -4
  91 0002 00AF     		add	r7, sp, #0
  92              		.cfi_def_cfa_register 7
  84:.\Generated_Source\PSoC5/Amp_PM.c ****     /* Save PGA enable state */
  85:.\Generated_Source\PSoC5/Amp_PM.c ****     if((Amp_PM_ACT_CFG_REG & Amp_ACT_PWR_EN) != 0u)
  93              		.loc 1 85 0
  94 0004 094B     		ldr	r3, .L6
  95 0006 1B78     		ldrb	r3, [r3]
  96 0008 DBB2     		uxtb	r3, r3
  97 000a 03F00103 		and	r3, r3, #1
  98 000e 002B     		cmp	r3, #0
  99 0010 05D0     		beq	.L4
  86:.\Generated_Source\PSoC5/Amp_PM.c ****     {
  87:.\Generated_Source\PSoC5/Amp_PM.c ****         /* Component is enabled */
  88:.\Generated_Source\PSoC5/Amp_PM.c ****         Amp_backup.enableState = 1u;
 100              		.loc 1 88 0
 101 0012 074B     		ldr	r3, .L6+4
 102 0014 0122     		movs	r2, #1
 103 0016 1A70     		strb	r2, [r3]
  89:.\Generated_Source\PSoC5/Amp_PM.c ****         /* Stop the configuration */
  90:.\Generated_Source\PSoC5/Amp_PM.c ****         Amp_Stop();
 104              		.loc 1 90 0
 105 0018 FFF7FEFF 		bl	Amp_Stop
 106 001c 02E0     		b	.L5
 107              	.L4:
  91:.\Generated_Source\PSoC5/Amp_PM.c ****     }
  92:.\Generated_Source\PSoC5/Amp_PM.c ****     else
  93:.\Generated_Source\PSoC5/Amp_PM.c ****     {
  94:.\Generated_Source\PSoC5/Amp_PM.c ****         /* Component is disabled */
  95:.\Generated_Source\PSoC5/Amp_PM.c ****         Amp_backup.enableState = 0u;
 108              		.loc 1 95 0
 109 001e 044B     		ldr	r3, .L6+4
 110 0020 0022     		movs	r2, #0
 111 0022 1A70     		strb	r2, [r3]
 112              	.L5:
  96:.\Generated_Source\PSoC5/Amp_PM.c ****     }
  97:.\Generated_Source\PSoC5/Amp_PM.c ****     /* Save the configuration */
  98:.\Generated_Source\PSoC5/Amp_PM.c ****     Amp_SaveConfig();
 113              		.loc 1 98 0
 114 0024 FFF7FEFF 		bl	Amp_SaveConfig
  99:.\Generated_Source\PSoC5/Amp_PM.c **** }
 115              		.loc 1 99 0
 116 0028 80BD     		pop	{r7, pc}
 117              	.L7:
 118 002a 00BF     		.align	2
 119              	.L6:
 120 002c A9430040 		.word	1073759145
 121 0030 00000000 		.word	Amp_backup
 122              		.cfi_endproc
 123              	.LFE2:
 124              		.size	Amp_Sleep, .-Amp_Sleep
 125              		.section	.text.Amp_Wakeup,"ax",%progbits
 126              		.align	2
 127              		.global	Amp_Wakeup
 128              		.thumb
 129              		.thumb_func
ARM GAS  C:\Users\IEUser\AppData\Local\Temp\cc2BL4O6.s 			page 5


 130              		.type	Amp_Wakeup, %function
 131              	Amp_Wakeup:
 132              	.LFB3:
 100:.\Generated_Source\PSoC5/Amp_PM.c **** 
 101:.\Generated_Source\PSoC5/Amp_PM.c **** 
 102:.\Generated_Source\PSoC5/Amp_PM.c **** /*******************************************************************************
 103:.\Generated_Source\PSoC5/Amp_PM.c **** * Function Name: Amp_Wakeup
 104:.\Generated_Source\PSoC5/Amp_PM.c **** ********************************************************************************
 105:.\Generated_Source\PSoC5/Amp_PM.c **** *
 106:.\Generated_Source\PSoC5/Amp_PM.c **** * Summary:
 107:.\Generated_Source\PSoC5/Amp_PM.c **** *  Enables block's operation and restores its configuration. Should be called
 108:.\Generated_Source\PSoC5/Amp_PM.c **** *  just after awaking from sleep.
 109:.\Generated_Source\PSoC5/Amp_PM.c **** *
 110:.\Generated_Source\PSoC5/Amp_PM.c **** * Parameters:
 111:.\Generated_Source\PSoC5/Amp_PM.c **** *  None
 112:.\Generated_Source\PSoC5/Amp_PM.c **** *
 113:.\Generated_Source\PSoC5/Amp_PM.c **** * Return:
 114:.\Generated_Source\PSoC5/Amp_PM.c **** *  void
 115:.\Generated_Source\PSoC5/Amp_PM.c **** *
 116:.\Generated_Source\PSoC5/Amp_PM.c **** * Global variables:
 117:.\Generated_Source\PSoC5/Amp_PM.c **** *  Amp_backup: The structure field 'enableState' is used to 
 118:.\Generated_Source\PSoC5/Amp_PM.c **** *  restore the enable state of block after wakeup from sleep mode.
 119:.\Generated_Source\PSoC5/Amp_PM.c **** * 
 120:.\Generated_Source\PSoC5/Amp_PM.c **** *******************************************************************************/
 121:.\Generated_Source\PSoC5/Amp_PM.c **** void Amp_Wakeup(void) 
 122:.\Generated_Source\PSoC5/Amp_PM.c **** {
 133              		.loc 1 122 0
 134              		.cfi_startproc
 135              		@ args = 0, pretend = 0, frame = 0
 136              		@ frame_needed = 1, uses_anonymous_args = 0
 137 0000 80B5     		push	{r7, lr}
 138              		.cfi_def_cfa_offset 8
 139              		.cfi_offset 7, -8
 140              		.cfi_offset 14, -4
 141 0002 00AF     		add	r7, sp, #0
 142              		.cfi_def_cfa_register 7
 123:.\Generated_Source\PSoC5/Amp_PM.c ****     /* Restore the configurations */
 124:.\Generated_Source\PSoC5/Amp_PM.c ****     Amp_RestoreConfig();
 143              		.loc 1 124 0
 144 0004 FFF7FEFF 		bl	Amp_RestoreConfig
 125:.\Generated_Source\PSoC5/Amp_PM.c ****      /* Enables the component operation */
 126:.\Generated_Source\PSoC5/Amp_PM.c ****     if(Amp_backup.enableState == 1u)
 145              		.loc 1 126 0
 146 0008 034B     		ldr	r3, .L10
 147 000a 1B78     		ldrb	r3, [r3]	@ zero_extendqisi2
 148 000c 012B     		cmp	r3, #1
 149 000e 01D1     		bne	.L8
 127:.\Generated_Source\PSoC5/Amp_PM.c ****     {
 128:.\Generated_Source\PSoC5/Amp_PM.c ****         Amp_Enable();
 150              		.loc 1 128 0
 151 0010 FFF7FEFF 		bl	Amp_Enable
 152              	.L8:
 129:.\Generated_Source\PSoC5/Amp_PM.c ****     } /* Do nothing if component was disable before */
 130:.\Generated_Source\PSoC5/Amp_PM.c **** }
 153              		.loc 1 130 0
 154 0014 80BD     		pop	{r7, pc}
 155              	.L11:
ARM GAS  C:\Users\IEUser\AppData\Local\Temp\cc2BL4O6.s 			page 6


 156 0016 00BF     		.align	2
 157              	.L10:
 158 0018 00000000 		.word	Amp_backup
 159              		.cfi_endproc
 160              	.LFE3:
 161              		.size	Amp_Wakeup, .-Amp_Wakeup
 162              		.text
 163              	.Letext0:
 164              		.file 2 ".\\Generated_Source\\PSoC5\\cytypes.h"
 165              		.file 3 ".\\Generated_Source\\PSoC5\\Amp.h"