ARM GAS  C:\Users\IEUser\AppData\Local\Temp\ccOs41ig.s 			page 1


   1              		.syntax unified
   2              		.cpu cortex-m3
   3              		.fpu softvfp
   4              		.eabi_attribute 20, 1
   5              		.eabi_attribute 21, 1
   6              		.eabi_attribute 23, 3
   7              		.eabi_attribute 24, 1
   8              		.eabi_attribute 25, 1
   9              		.eabi_attribute 26, 1
  10              		.eabi_attribute 30, 6
  11              		.eabi_attribute 34, 1
  12              		.eabi_attribute 18, 4
  13              		.thumb
  14              		.file	"cyfitter_cfg.c"
  15              		.text
  16              	.Ltext0:
  17              		.cfi_sections	.debug_frame
  18              		.section	.text.CYMEMZERO,"ax",%progbits
  19              		.align	2
  20              		.thumb
  21              		.thumb_func
  22              		.type	CYMEMZERO, %function
  23              	CYMEMZERO:
  24              	.LFB0:
  25              		.file 1 ".\\Generated_Source\\PSoC5\\cyfitter_cfg.c"
   1:.\Generated_Source\PSoC5/cyfitter_cfg.c **** /*******************************************************************************
   2:.\Generated_Source\PSoC5/cyfitter_cfg.c **** * FILENAME: cyfitter_cfg.c
   3:.\Generated_Source\PSoC5/cyfitter_cfg.c **** * 
   4:.\Generated_Source\PSoC5/cyfitter_cfg.c **** * PSoC Creator  3.2
   5:.\Generated_Source\PSoC5/cyfitter_cfg.c **** *
   6:.\Generated_Source\PSoC5/cyfitter_cfg.c **** * DESCRIPTION:
   7:.\Generated_Source\PSoC5/cyfitter_cfg.c **** * This file contains device initialization code.
   8:.\Generated_Source\PSoC5/cyfitter_cfg.c **** * Except for the user defined sections in CyClockStartupError(), this file should not be modified.
   9:.\Generated_Source\PSoC5/cyfitter_cfg.c **** * This file is automatically generated by PSoC Creator.
  10:.\Generated_Source\PSoC5/cyfitter_cfg.c **** *
  11:.\Generated_Source\PSoC5/cyfitter_cfg.c **** ********************************************************************************
  12:.\Generated_Source\PSoC5/cyfitter_cfg.c **** * Copyright (c) 2007-2015 Cypress Semiconductor.  All rights reserved.
  13:.\Generated_Source\PSoC5/cyfitter_cfg.c **** * You may use this file only in accordance with the license, terms, conditions, 
  14:.\Generated_Source\PSoC5/cyfitter_cfg.c **** * disclaimers, and limitations in the end user license agreement accompanying 
  15:.\Generated_Source\PSoC5/cyfitter_cfg.c **** * the software package with which this file was provided.
  16:.\Generated_Source\PSoC5/cyfitter_cfg.c **** ********************************************************************************/
  17:.\Generated_Source\PSoC5/cyfitter_cfg.c **** 
  18:.\Generated_Source\PSoC5/cyfitter_cfg.c **** #include <string.h>
  19:.\Generated_Source\PSoC5/cyfitter_cfg.c **** #include "cytypes.h"
  20:.\Generated_Source\PSoC5/cyfitter_cfg.c **** #include "cydevice_trm.h"
  21:.\Generated_Source\PSoC5/cyfitter_cfg.c **** #include "cyfitter.h"
  22:.\Generated_Source\PSoC5/cyfitter_cfg.c **** #include "CyLib.h"
  23:.\Generated_Source\PSoC5/cyfitter_cfg.c **** #include "cyfitter_cfg.h"
  24:.\Generated_Source\PSoC5/cyfitter_cfg.c **** 
  25:.\Generated_Source\PSoC5/cyfitter_cfg.c **** #define CY_NEED_CYCLOCKSTARTUPERROR 1
  26:.\Generated_Source\PSoC5/cyfitter_cfg.c **** 
  27:.\Generated_Source\PSoC5/cyfitter_cfg.c **** 
  28:.\Generated_Source\PSoC5/cyfitter_cfg.c **** #if defined(__GNUC__) || defined(__ARMCC_VERSION)
  29:.\Generated_Source\PSoC5/cyfitter_cfg.c ****     #define CYPACKED 
  30:.\Generated_Source\PSoC5/cyfitter_cfg.c ****     #define CYPACKED_ATTR __attribute__ ((packed))
  31:.\Generated_Source\PSoC5/cyfitter_cfg.c ****     #define CYALIGNED __attribute__ ((aligned))
  32:.\Generated_Source\PSoC5/cyfitter_cfg.c ****     #define CY_CFG_UNUSED __attribute__ ((unused))
ARM GAS  C:\Users\IEUser\AppData\Local\Temp\ccOs41ig.s 			page 2


  33:.\Generated_Source\PSoC5/cyfitter_cfg.c ****     #define CY_CFG_SECTION __attribute__ ((section(".psocinit")))
  34:.\Generated_Source\PSoC5/cyfitter_cfg.c ****     
  35:.\Generated_Source\PSoC5/cyfitter_cfg.c ****     #if defined(__ARMCC_VERSION)
  36:.\Generated_Source\PSoC5/cyfitter_cfg.c ****         #define CY_CFG_MEMORY_BARRIER() __memory_changed()
  37:.\Generated_Source\PSoC5/cyfitter_cfg.c ****     #else
  38:.\Generated_Source\PSoC5/cyfitter_cfg.c ****         #define CY_CFG_MEMORY_BARRIER() __sync_synchronize()
  39:.\Generated_Source\PSoC5/cyfitter_cfg.c ****     #endif
  40:.\Generated_Source\PSoC5/cyfitter_cfg.c ****     
  41:.\Generated_Source\PSoC5/cyfitter_cfg.c **** #elif defined(__ICCARM__)
  42:.\Generated_Source\PSoC5/cyfitter_cfg.c ****     #include <intrinsics.h>
  43:.\Generated_Source\PSoC5/cyfitter_cfg.c **** 
  44:.\Generated_Source\PSoC5/cyfitter_cfg.c ****     #define CYPACKED __packed
  45:.\Generated_Source\PSoC5/cyfitter_cfg.c ****     #define CYPACKED_ATTR 
  46:.\Generated_Source\PSoC5/cyfitter_cfg.c ****     #define CYALIGNED _Pragma("data_alignment=4")
  47:.\Generated_Source\PSoC5/cyfitter_cfg.c ****     #define CY_CFG_UNUSED _Pragma("diag_suppress=Pe177")
  48:.\Generated_Source\PSoC5/cyfitter_cfg.c ****     #define CY_CFG_SECTION _Pragma("location=\".psocinit\"")
  49:.\Generated_Source\PSoC5/cyfitter_cfg.c ****     
  50:.\Generated_Source\PSoC5/cyfitter_cfg.c ****     #define CY_CFG_MEMORY_BARRIER() __DMB()
  51:.\Generated_Source\PSoC5/cyfitter_cfg.c ****     
  52:.\Generated_Source\PSoC5/cyfitter_cfg.c **** #else
  53:.\Generated_Source\PSoC5/cyfitter_cfg.c ****     #error Unsupported toolchain
  54:.\Generated_Source\PSoC5/cyfitter_cfg.c **** #endif
  55:.\Generated_Source\PSoC5/cyfitter_cfg.c **** 
  56:.\Generated_Source\PSoC5/cyfitter_cfg.c **** 
  57:.\Generated_Source\PSoC5/cyfitter_cfg.c **** CY_CFG_UNUSED
  58:.\Generated_Source\PSoC5/cyfitter_cfg.c **** static void CYMEMZERO(void *s, size_t n);
  59:.\Generated_Source\PSoC5/cyfitter_cfg.c **** CY_CFG_UNUSED
  60:.\Generated_Source\PSoC5/cyfitter_cfg.c **** static void CYMEMZERO(void *s, size_t n)
  61:.\Generated_Source\PSoC5/cyfitter_cfg.c **** {
  26              		.loc 1 61 0
  27              		.cfi_startproc
  28              		@ args = 0, pretend = 0, frame = 8
  29              		@ frame_needed = 1, uses_anonymous_args = 0
  30 0000 80B5     		push	{r7, lr}
  31              		.cfi_def_cfa_offset 8
  32              		.cfi_offset 7, -8
  33              		.cfi_offset 14, -4
  34 0002 82B0     		sub	sp, sp, #8
  35              		.cfi_def_cfa_offset 16
  36 0004 00AF     		add	r7, sp, #0
  37              		.cfi_def_cfa_register 7
  38 0006 7860     		str	r0, [r7, #4]
  39 0008 3960     		str	r1, [r7]
  62:.\Generated_Source\PSoC5/cyfitter_cfg.c **** 	(void)memset(s, 0, n);
  40              		.loc 1 62 0
  41 000a 7868     		ldr	r0, [r7, #4]
  42 000c 0021     		movs	r1, #0
  43 000e 3A68     		ldr	r2, [r7]
  44 0010 FFF7FEFF 		bl	memset
  63:.\Generated_Source\PSoC5/cyfitter_cfg.c **** }
  45              		.loc 1 63 0
  46 0014 0837     		adds	r7, r7, #8
  47 0016 BD46     		mov	sp, r7
  48              		@ sp needed
  49 0018 80BD     		pop	{r7, pc}
  50              		.cfi_endproc
  51              	.LFE0:
ARM GAS  C:\Users\IEUser\AppData\Local\Temp\ccOs41ig.s 			page 3


  52              		.size	CYMEMZERO, .-CYMEMZERO
  53 001a 00BF     		.section	.text.CYCONFIGCPY,"ax",%progbits
  54              		.align	2
  55              		.thumb
  56              		.thumb_func
  57              		.type	CYCONFIGCPY, %function
  58              	CYCONFIGCPY:
  59              	.LFB1:
  64:.\Generated_Source\PSoC5/cyfitter_cfg.c **** CY_CFG_UNUSED
  65:.\Generated_Source\PSoC5/cyfitter_cfg.c **** static void CYCONFIGCPY(void *dest, const void *src, size_t n);
  66:.\Generated_Source\PSoC5/cyfitter_cfg.c **** CY_CFG_UNUSED
  67:.\Generated_Source\PSoC5/cyfitter_cfg.c **** static void CYCONFIGCPY(void *dest, const void *src, size_t n)
  68:.\Generated_Source\PSoC5/cyfitter_cfg.c **** {
  60              		.loc 1 68 0
  61              		.cfi_startproc
  62              		@ args = 0, pretend = 0, frame = 16
  63              		@ frame_needed = 1, uses_anonymous_args = 0
  64 0000 80B5     		push	{r7, lr}
  65              		.cfi_def_cfa_offset 8
  66              		.cfi_offset 7, -8
  67              		.cfi_offset 14, -4
  68 0002 84B0     		sub	sp, sp, #16
  69              		.cfi_def_cfa_offset 24
  70 0004 00AF     		add	r7, sp, #0
  71              		.cfi_def_cfa_register 7
  72 0006 F860     		str	r0, [r7, #12]
  73 0008 B960     		str	r1, [r7, #8]
  74 000a 7A60     		str	r2, [r7, #4]
  69:.\Generated_Source\PSoC5/cyfitter_cfg.c **** 	(void)memcpy(dest, src, n);
  75              		.loc 1 69 0
  76 000c F868     		ldr	r0, [r7, #12]
  77 000e B968     		ldr	r1, [r7, #8]
  78 0010 7A68     		ldr	r2, [r7, #4]
  79 0012 FFF7FEFF 		bl	memcpy
  70:.\Generated_Source\PSoC5/cyfitter_cfg.c **** }
  80              		.loc 1 70 0
  81 0016 1037     		adds	r7, r7, #16
  82 0018 BD46     		mov	sp, r7
  83              		@ sp needed
  84 001a 80BD     		pop	{r7, pc}
  85              		.cfi_endproc
  86              	.LFE1:
  87              		.size	CYCONFIGCPY, .-CYCONFIGCPY
  88              		.section	.text.CYCONFIGCPYCODE,"ax",%progbits
  89              		.align	2
  90              		.thumb
  91              		.thumb_func
  92              		.type	CYCONFIGCPYCODE, %function
  93              	CYCONFIGCPYCODE:
  94              	.LFB2:
  71:.\Generated_Source\PSoC5/cyfitter_cfg.c **** CY_CFG_UNUSED
  72:.\Generated_Source\PSoC5/cyfitter_cfg.c **** static void CYCONFIGCPYCODE(void *dest, const void *src, size_t n);
  73:.\Generated_Source\PSoC5/cyfitter_cfg.c **** CY_CFG_UNUSED
  74:.\Generated_Source\PSoC5/cyfitter_cfg.c **** static void CYCONFIGCPYCODE(void *dest, const void *src, size_t n)
  75:.\Generated_Source\PSoC5/cyfitter_cfg.c **** {
  95              		.loc 1 75 0
  96              		.cfi_startproc
ARM GAS  C:\Users\IEUser\AppData\Local\Temp\ccOs41ig.s 			page 4


  97              		@ args = 0, pretend = 0, frame = 16
  98              		@ frame_needed = 1, uses_anonymous_args = 0
  99 0000 80B5     		push	{r7, lr}
 100              		.cfi_def_cfa_offset 8
 101              		.cfi_offset 7, -8
 102              		.cfi_offset 14, -4
 103 0002 84B0     		sub	sp, sp, #16
 104              		.cfi_def_cfa_offset 24
 105 0004 00AF     		add	r7, sp, #0
 106              		.cfi_def_cfa_register 7
 107 0006 F860     		str	r0, [r7, #12]
 108 0008 B960     		str	r1, [r7, #8]
 109 000a 7A60     		str	r2, [r7, #4]
  76:.\Generated_Source\PSoC5/cyfitter_cfg.c **** 	(void)memcpy(dest, src, n);
 110              		.loc 1 76 0
 111 000c F868     		ldr	r0, [r7, #12]
 112 000e B968     		ldr	r1, [r7, #8]
 113 0010 7A68     		ldr	r2, [r7, #4]
 114 0012 FFF7FEFF 		bl	memcpy
  77:.\Generated_Source\PSoC5/cyfitter_cfg.c **** }
 115              		.loc 1 77 0
 116 0016 1037     		adds	r7, r7, #16
 117 0018 BD46     		mov	sp, r7
 118              		@ sp needed
 119 001a 80BD     		pop	{r7, pc}
 120              		.cfi_endproc
 121              	.LFE2:
 122              		.size	CYCONFIGCPYCODE, .-CYCONFIGCPYCODE
 123              		.section	.text.CyClockStartupError,"ax",%progbits
 124              		.align	2
 125              		.thumb
 126              		.thumb_func
 127              		.type	CyClockStartupError, %function
 128              	CyClockStartupError:
 129              	.LFB3:
  78:.\Generated_Source\PSoC5/cyfitter_cfg.c **** 
  79:.\Generated_Source\PSoC5/cyfitter_cfg.c **** 
  80:.\Generated_Source\PSoC5/cyfitter_cfg.c **** 
  81:.\Generated_Source\PSoC5/cyfitter_cfg.c **** /* Clock startup error codes                                                   */
  82:.\Generated_Source\PSoC5/cyfitter_cfg.c **** #define CYCLOCKSTART_NO_ERROR    0u
  83:.\Generated_Source\PSoC5/cyfitter_cfg.c **** #define CYCLOCKSTART_XTAL_ERROR  1u
  84:.\Generated_Source\PSoC5/cyfitter_cfg.c **** #define CYCLOCKSTART_32KHZ_ERROR 2u
  85:.\Generated_Source\PSoC5/cyfitter_cfg.c **** #define CYCLOCKSTART_PLL_ERROR   3u
  86:.\Generated_Source\PSoC5/cyfitter_cfg.c **** 
  87:.\Generated_Source\PSoC5/cyfitter_cfg.c **** #ifdef CY_NEED_CYCLOCKSTARTUPERROR
  88:.\Generated_Source\PSoC5/cyfitter_cfg.c **** /*******************************************************************************
  89:.\Generated_Source\PSoC5/cyfitter_cfg.c **** * Function Name: CyClockStartupError
  90:.\Generated_Source\PSoC5/cyfitter_cfg.c **** ********************************************************************************
  91:.\Generated_Source\PSoC5/cyfitter_cfg.c **** * Summary:
  92:.\Generated_Source\PSoC5/cyfitter_cfg.c **** *  If an error is encountered during clock configuration (crystal startup error,
  93:.\Generated_Source\PSoC5/cyfitter_cfg.c **** *  PLL lock error, etc.), the system will end up here.  Unless reimplemented by
  94:.\Generated_Source\PSoC5/cyfitter_cfg.c **** *  the customer, this function will stop in an infinite loop.
  95:.\Generated_Source\PSoC5/cyfitter_cfg.c **** *
  96:.\Generated_Source\PSoC5/cyfitter_cfg.c **** * Parameters:
  97:.\Generated_Source\PSoC5/cyfitter_cfg.c **** *   void
  98:.\Generated_Source\PSoC5/cyfitter_cfg.c **** *
  99:.\Generated_Source\PSoC5/cyfitter_cfg.c **** * Return:
ARM GAS  C:\Users\IEUser\AppData\Local\Temp\ccOs41ig.s 			page 5


 100:.\Generated_Source\PSoC5/cyfitter_cfg.c **** *   void
 101:.\Generated_Source\PSoC5/cyfitter_cfg.c **** *
 102:.\Generated_Source\PSoC5/cyfitter_cfg.c **** *******************************************************************************/
 103:.\Generated_Source\PSoC5/cyfitter_cfg.c **** CY_CFG_UNUSED
 104:.\Generated_Source\PSoC5/cyfitter_cfg.c **** static void CyClockStartupError(uint8 errorCode);
 105:.\Generated_Source\PSoC5/cyfitter_cfg.c **** CY_CFG_UNUSED
 106:.\Generated_Source\PSoC5/cyfitter_cfg.c **** static void CyClockStartupError(uint8 errorCode)
 107:.\Generated_Source\PSoC5/cyfitter_cfg.c **** {
 130              		.loc 1 107 0
 131              		.cfi_startproc
 132              		@ args = 0, pretend = 0, frame = 8
 133              		@ frame_needed = 1, uses_anonymous_args = 0
 134              		@ link register save eliminated.
 135 0000 80B4     		push	{r7}
 136              		.cfi_def_cfa_offset 4
 137              		.cfi_offset 7, -4
 138 0002 83B0     		sub	sp, sp, #12
 139              		.cfi_def_cfa_offset 16
 140 0004 00AF     		add	r7, sp, #0
 141              		.cfi_def_cfa_register 7
 142 0006 0346     		mov	r3, r0
 143 0008 FB71     		strb	r3, [r7, #7]
 144              	.L5:
 108:.\Generated_Source\PSoC5/cyfitter_cfg.c ****     /* To remove the compiler warning if errorCode not used.                */
 109:.\Generated_Source\PSoC5/cyfitter_cfg.c ****     errorCode = errorCode;
 110:.\Generated_Source\PSoC5/cyfitter_cfg.c **** 
 111:.\Generated_Source\PSoC5/cyfitter_cfg.c ****     /* `#START CyClockStartupError` */
 112:.\Generated_Source\PSoC5/cyfitter_cfg.c **** 
 113:.\Generated_Source\PSoC5/cyfitter_cfg.c ****     /* If we have a clock startup error (bad MHz crystal, PLL lock, etc.),  */
 114:.\Generated_Source\PSoC5/cyfitter_cfg.c ****     /* we will end up here to allow the customer to implement something to  */
 115:.\Generated_Source\PSoC5/cyfitter_cfg.c ****     /* deal with the clock condition.                                       */
 116:.\Generated_Source\PSoC5/cyfitter_cfg.c **** 
 117:.\Generated_Source\PSoC5/cyfitter_cfg.c ****     /* `#END` */
 118:.\Generated_Source\PSoC5/cyfitter_cfg.c **** 
 119:.\Generated_Source\PSoC5/cyfitter_cfg.c ****     /* If nothing else, stop here since the clocks have not started         */
 120:.\Generated_Source\PSoC5/cyfitter_cfg.c ****     /* correctly.                                                           */
 121:.\Generated_Source\PSoC5/cyfitter_cfg.c ****     while(1) {}
 145              		.loc 1 121 0 discriminator 1
 146 000a FEE7     		b	.L5
 147              		.cfi_endproc
 148              	.LFE3:
 149              		.size	CyClockStartupError, .-CyClockStartupError
 150              		.section	.text.cfg_write_bytes32,"ax",%progbits
 151              		.align	2
 152              		.thumb
 153              		.thumb_func
 154              		.type	cfg_write_bytes32, %function
 155              	cfg_write_bytes32:
 156              	.LFB4:
 122:.\Generated_Source\PSoC5/cyfitter_cfg.c **** }
 123:.\Generated_Source\PSoC5/cyfitter_cfg.c **** #endif
 124:.\Generated_Source\PSoC5/cyfitter_cfg.c **** 
 125:.\Generated_Source\PSoC5/cyfitter_cfg.c **** #define CY_CFG_BASE_ADDR_COUNT 28u
 126:.\Generated_Source\PSoC5/cyfitter_cfg.c **** CYPACKED typedef struct
 127:.\Generated_Source\PSoC5/cyfitter_cfg.c **** {
 128:.\Generated_Source\PSoC5/cyfitter_cfg.c **** 	uint8 offset;
 129:.\Generated_Source\PSoC5/cyfitter_cfg.c **** 	uint8 value;
ARM GAS  C:\Users\IEUser\AppData\Local\Temp\ccOs41ig.s 			page 6


 130:.\Generated_Source\PSoC5/cyfitter_cfg.c **** } CYPACKED_ATTR cy_cfg_addrvalue_t;
 131:.\Generated_Source\PSoC5/cyfitter_cfg.c **** 
 132:.\Generated_Source\PSoC5/cyfitter_cfg.c **** #define cy_cfg_addr_table ((const uint32 CYFAR *)0x48000000u)
 133:.\Generated_Source\PSoC5/cyfitter_cfg.c **** #define cy_cfg_data_table ((const cy_cfg_addrvalue_t CYFAR *)0x48000070u)
 134:.\Generated_Source\PSoC5/cyfitter_cfg.c **** 
 135:.\Generated_Source\PSoC5/cyfitter_cfg.c **** /* IOPINS0_0 Address: CYREG_PRT0_DM0 Size (bytes): 8 */
 136:.\Generated_Source\PSoC5/cyfitter_cfg.c **** #define BS_IOPINS0_0_VAL ((const uint8 CYFAR *)0x48000294u)
 137:.\Generated_Source\PSoC5/cyfitter_cfg.c **** 
 138:.\Generated_Source\PSoC5/cyfitter_cfg.c **** /* IOPINS0_8 Address: CYREG_PRT15_DM0 Size (bytes): 8 */
 139:.\Generated_Source\PSoC5/cyfitter_cfg.c **** #define BS_IOPINS0_8_VAL ((const uint8 CYFAR *)0x4800029Cu)
 140:.\Generated_Source\PSoC5/cyfitter_cfg.c **** 
 141:.\Generated_Source\PSoC5/cyfitter_cfg.c **** /* IOPINS0_3 Address: CYREG_PRT3_DM0 Size (bytes): 8 */
 142:.\Generated_Source\PSoC5/cyfitter_cfg.c **** #define BS_IOPINS0_3_VAL ((const uint8 CYFAR *)0x480002A4u)
 143:.\Generated_Source\PSoC5/cyfitter_cfg.c **** 
 144:.\Generated_Source\PSoC5/cyfitter_cfg.c **** /* IOPINS0_4 Address: CYREG_PRT4_DM0 Size (bytes): 8 */
 145:.\Generated_Source\PSoC5/cyfitter_cfg.c **** #define BS_IOPINS0_4_VAL ((const uint8 CYFAR *)0x480002ACu)
 146:.\Generated_Source\PSoC5/cyfitter_cfg.c **** 
 147:.\Generated_Source\PSoC5/cyfitter_cfg.c **** /* IOPINS0_5 Address: CYREG_PRT5_DM0 Size (bytes): 8 */
 148:.\Generated_Source\PSoC5/cyfitter_cfg.c **** #define BS_IOPINS0_5_VAL ((const uint8 CYFAR *)0x480002B4u)
 149:.\Generated_Source\PSoC5/cyfitter_cfg.c **** 
 150:.\Generated_Source\PSoC5/cyfitter_cfg.c **** 
 151:.\Generated_Source\PSoC5/cyfitter_cfg.c **** /*******************************************************************************
 152:.\Generated_Source\PSoC5/cyfitter_cfg.c **** * Function Name: cfg_write_bytes32
 153:.\Generated_Source\PSoC5/cyfitter_cfg.c **** ********************************************************************************
 154:.\Generated_Source\PSoC5/cyfitter_cfg.c **** * Summary:
 155:.\Generated_Source\PSoC5/cyfitter_cfg.c **** *  This function is used for setting up the chip configuration areas that
 156:.\Generated_Source\PSoC5/cyfitter_cfg.c **** *  contain relatively sparse data.
 157:.\Generated_Source\PSoC5/cyfitter_cfg.c **** *
 158:.\Generated_Source\PSoC5/cyfitter_cfg.c **** * Parameters:
 159:.\Generated_Source\PSoC5/cyfitter_cfg.c **** *   void
 160:.\Generated_Source\PSoC5/cyfitter_cfg.c **** *
 161:.\Generated_Source\PSoC5/cyfitter_cfg.c **** * Return:
 162:.\Generated_Source\PSoC5/cyfitter_cfg.c **** *   void
 163:.\Generated_Source\PSoC5/cyfitter_cfg.c **** *
 164:.\Generated_Source\PSoC5/cyfitter_cfg.c **** *******************************************************************************/
 165:.\Generated_Source\PSoC5/cyfitter_cfg.c **** static void cfg_write_bytes32(const uint32 addr_table[], const cy_cfg_addrvalue_t data_table[]);
 166:.\Generated_Source\PSoC5/cyfitter_cfg.c **** static void cfg_write_bytes32(const uint32 addr_table[], const cy_cfg_addrvalue_t data_table[])
 167:.\Generated_Source\PSoC5/cyfitter_cfg.c **** {
 157              		.loc 1 167 0
 158              		.cfi_startproc
 159              		@ args = 0, pretend = 0, frame = 24
 160              		@ frame_needed = 1, uses_anonymous_args = 0
 161              		@ link register save eliminated.
 162 0000 80B4     		push	{r7}
 163              		.cfi_def_cfa_offset 4
 164              		.cfi_offset 7, -4
 165 0002 87B0     		sub	sp, sp, #28
 166              		.cfi_def_cfa_offset 32
 167 0004 00AF     		add	r7, sp, #0
 168              		.cfi_def_cfa_register 7
 169 0006 7860     		str	r0, [r7, #4]
 170 0008 3960     		str	r1, [r7]
 168:.\Generated_Source\PSoC5/cyfitter_cfg.c **** 	/* For 32-bit little-endian architectures */
 169:.\Generated_Source\PSoC5/cyfitter_cfg.c **** 	uint32 i, j = 0u;
 171              		.loc 1 169 0
 172 000a 0023     		movs	r3, #0
 173 000c 3B61     		str	r3, [r7, #16]
ARM GAS  C:\Users\IEUser\AppData\Local\Temp\ccOs41ig.s 			page 7


 170:.\Generated_Source\PSoC5/cyfitter_cfg.c **** 	for (i = 0u; i < CY_CFG_BASE_ADDR_COUNT; i++)
 174              		.loc 1 170 0
 175 000e 0023     		movs	r3, #0
 176 0010 7B61     		str	r3, [r7, #20]
 177 0012 26E0     		b	.L7
 178              	.L10:
 179              	.LBB2:
 171:.\Generated_Source\PSoC5/cyfitter_cfg.c **** 	{
 172:.\Generated_Source\PSoC5/cyfitter_cfg.c **** 		uint32 baseAddr = addr_table[i];
 180              		.loc 1 172 0
 181 0014 7B69     		ldr	r3, [r7, #20]
 182 0016 9B00     		lsls	r3, r3, #2
 183 0018 7A68     		ldr	r2, [r7, #4]
 184 001a 1344     		add	r3, r3, r2
 185 001c 1B68     		ldr	r3, [r3]
 186 001e BB60     		str	r3, [r7, #8]
 173:.\Generated_Source\PSoC5/cyfitter_cfg.c **** 		uint8 count = (uint8)baseAddr;
 187              		.loc 1 173 0
 188 0020 BB68     		ldr	r3, [r7, #8]
 189 0022 FB73     		strb	r3, [r7, #15]
 174:.\Generated_Source\PSoC5/cyfitter_cfg.c **** 		baseAddr &= 0xFFFFFF00u;
 190              		.loc 1 174 0
 191 0024 BB68     		ldr	r3, [r7, #8]
 192 0026 23F0FF03 		bic	r3, r3, #255
 193 002a BB60     		str	r3, [r7, #8]
 175:.\Generated_Source\PSoC5/cyfitter_cfg.c **** 		while (count != 0u)
 194              		.loc 1 175 0
 195 002c 13E0     		b	.L8
 196              	.L9:
 176:.\Generated_Source\PSoC5/cyfitter_cfg.c **** 		{
 177:.\Generated_Source\PSoC5/cyfitter_cfg.c **** 			CY_SET_XTND_REG8((void CYFAR *)(baseAddr + data_table[j].offset), data_table[j].value);
 197              		.loc 1 177 0
 198 002e 3B69     		ldr	r3, [r7, #16]
 199 0030 5B00     		lsls	r3, r3, #1
 200 0032 3A68     		ldr	r2, [r7]
 201 0034 1344     		add	r3, r3, r2
 202 0036 1B78     		ldrb	r3, [r3]	@ zero_extendqisi2
 203 0038 1A46     		mov	r2, r3
 204 003a BB68     		ldr	r3, [r7, #8]
 205 003c 1344     		add	r3, r3, r2
 206 003e 3A69     		ldr	r2, [r7, #16]
 207 0040 5200     		lsls	r2, r2, #1
 208 0042 3968     		ldr	r1, [r7]
 209 0044 0A44     		add	r2, r2, r1
 210 0046 5278     		ldrb	r2, [r2, #1]	@ zero_extendqisi2
 211 0048 1A70     		strb	r2, [r3]
 178:.\Generated_Source\PSoC5/cyfitter_cfg.c **** 			j++;
 212              		.loc 1 178 0
 213 004a 3B69     		ldr	r3, [r7, #16]
 214 004c 0133     		adds	r3, r3, #1
 215 004e 3B61     		str	r3, [r7, #16]
 179:.\Generated_Source\PSoC5/cyfitter_cfg.c **** 			count--;
 216              		.loc 1 179 0
 217 0050 FB7B     		ldrb	r3, [r7, #15]	@ zero_extendqisi2
 218 0052 013B     		subs	r3, r3, #1
 219 0054 FB73     		strb	r3, [r7, #15]
 220              	.L8:
ARM GAS  C:\Users\IEUser\AppData\Local\Temp\ccOs41ig.s 			page 8


 175:.\Generated_Source\PSoC5/cyfitter_cfg.c **** 		while (count != 0u)
 221              		.loc 1 175 0 discriminator 1
 222 0056 FB7B     		ldrb	r3, [r7, #15]	@ zero_extendqisi2
 223 0058 002B     		cmp	r3, #0
 224 005a E8D1     		bne	.L9
 225              	.LBE2:
 170:.\Generated_Source\PSoC5/cyfitter_cfg.c **** 	for (i = 0u; i < CY_CFG_BASE_ADDR_COUNT; i++)
 226              		.loc 1 170 0
 227 005c 7B69     		ldr	r3, [r7, #20]
 228 005e 0133     		adds	r3, r3, #1
 229 0060 7B61     		str	r3, [r7, #20]
 230              	.L7:
 170:.\Generated_Source\PSoC5/cyfitter_cfg.c **** 	for (i = 0u; i < CY_CFG_BASE_ADDR_COUNT; i++)
 231              		.loc 1 170 0 is_stmt 0 discriminator 1
 232 0062 7B69     		ldr	r3, [r7, #20]
 233 0064 1B2B     		cmp	r3, #27
 234 0066 D5D9     		bls	.L10
 180:.\Generated_Source\PSoC5/cyfitter_cfg.c **** 		}
 181:.\Generated_Source\PSoC5/cyfitter_cfg.c **** 	}
 182:.\Generated_Source\PSoC5/cyfitter_cfg.c **** }
 235              		.loc 1 182 0 is_stmt 1
 236 0068 1C37     		adds	r7, r7, #28
 237 006a BD46     		mov	sp, r7
 238              		@ sp needed
 239 006c 5DF8047B 		ldr	r7, [sp], #4
 240 0070 7047     		bx	lr
 241              		.cfi_endproc
 242              	.LFE4:
 243              		.size	cfg_write_bytes32, .-cfg_write_bytes32
 244 0072 00BF     		.section	.text.ClockSetup,"ax",%progbits
 245              		.align	2
 246              		.thumb
 247              		.thumb_func
 248              		.type	ClockSetup, %function
 249              	ClockSetup:
 250              	.LFB5:
 183:.\Generated_Source\PSoC5/cyfitter_cfg.c **** 
 184:.\Generated_Source\PSoC5/cyfitter_cfg.c **** /*******************************************************************************
 185:.\Generated_Source\PSoC5/cyfitter_cfg.c **** * Function Name: ClockSetup
 186:.\Generated_Source\PSoC5/cyfitter_cfg.c **** ********************************************************************************
 187:.\Generated_Source\PSoC5/cyfitter_cfg.c **** *
 188:.\Generated_Source\PSoC5/cyfitter_cfg.c **** * Summary:
 189:.\Generated_Source\PSoC5/cyfitter_cfg.c **** *  Performs the initialization of all of the clocks in the device based on the
 190:.\Generated_Source\PSoC5/cyfitter_cfg.c **** *  settings in the Clock tab of the DWR.  This includes enabling the requested
 191:.\Generated_Source\PSoC5/cyfitter_cfg.c **** *  clocks and setting the necessary dividers to produce the desired frequency. 
 192:.\Generated_Source\PSoC5/cyfitter_cfg.c **** *
 193:.\Generated_Source\PSoC5/cyfitter_cfg.c **** * Parameters:
 194:.\Generated_Source\PSoC5/cyfitter_cfg.c **** *  void
 195:.\Generated_Source\PSoC5/cyfitter_cfg.c **** *
 196:.\Generated_Source\PSoC5/cyfitter_cfg.c **** * Return:
 197:.\Generated_Source\PSoC5/cyfitter_cfg.c **** *  void
 198:.\Generated_Source\PSoC5/cyfitter_cfg.c **** *
 199:.\Generated_Source\PSoC5/cyfitter_cfg.c **** *******************************************************************************/
 200:.\Generated_Source\PSoC5/cyfitter_cfg.c **** static void ClockSetup(void);
 201:.\Generated_Source\PSoC5/cyfitter_cfg.c **** static void ClockSetup(void)
 202:.\Generated_Source\PSoC5/cyfitter_cfg.c **** {
 251              		.loc 1 202 0
ARM GAS  C:\Users\IEUser\AppData\Local\Temp\ccOs41ig.s 			page 9


 252              		.cfi_startproc
 253              		@ args = 0, pretend = 0, frame = 8
 254              		@ frame_needed = 1, uses_anonymous_args = 0
 255 0000 80B5     		push	{r7, lr}
 256              		.cfi_def_cfa_offset 8
 257              		.cfi_offset 7, -8
 258              		.cfi_offset 14, -4
 259 0002 82B0     		sub	sp, sp, #8
 260              		.cfi_def_cfa_offset 16
 261 0004 00AF     		add	r7, sp, #0
 262              		.cfi_def_cfa_register 7
 203:.\Generated_Source\PSoC5/cyfitter_cfg.c **** 	uint32 timeout;
 204:.\Generated_Source\PSoC5/cyfitter_cfg.c **** 	uint8 pllLock;
 205:.\Generated_Source\PSoC5/cyfitter_cfg.c **** 
 206:.\Generated_Source\PSoC5/cyfitter_cfg.c **** 
 207:.\Generated_Source\PSoC5/cyfitter_cfg.c **** 	/* Configure Digital Clocks based on settings from Clock DWR */
 208:.\Generated_Source\PSoC5/cyfitter_cfg.c **** 	CY_SET_XTND_REG16((void CYFAR *)(CYREG_CLKDIST_DCFG0_CFG0), 0x0000u);
 263              		.loc 1 208 0
 264 0006 3F4B     		ldr	r3, .L16
 265 0008 0022     		movs	r2, #0
 266 000a 1A80     		strh	r2, [r3]	@ movhi
 209:.\Generated_Source\PSoC5/cyfitter_cfg.c **** 	CY_SET_XTND_REG8((void CYFAR *)(CYREG_CLKDIST_DCFG0_CFG0 + 0x2u), 0x58u);
 267              		.loc 1 209 0
 268 000c 3E4B     		ldr	r3, .L16+4
 269 000e 5822     		movs	r2, #88
 270 0010 1A70     		strb	r2, [r3]
 210:.\Generated_Source\PSoC5/cyfitter_cfg.c **** 	CY_SET_XTND_REG16((void CYFAR *)(CYREG_CLKDIST_DCFG1_CFG0), 0x0001u);
 271              		.loc 1 210 0
 272 0012 3E4B     		ldr	r3, .L16+8
 273 0014 0122     		movs	r2, #1
 274 0016 1A80     		strh	r2, [r3]	@ movhi
 211:.\Generated_Source\PSoC5/cyfitter_cfg.c **** 	CY_SET_XTND_REG8((void CYFAR *)(CYREG_CLKDIST_DCFG1_CFG0 + 0x2u), 0x18u);
 275              		.loc 1 211 0
 276 0018 3D4B     		ldr	r3, .L16+12
 277 001a 1822     		movs	r2, #24
 278 001c 1A70     		strb	r2, [r3]
 212:.\Generated_Source\PSoC5/cyfitter_cfg.c **** 	CY_SET_XTND_REG16((void CYFAR *)(CYREG_CLKDIST_DCFG2_CFG0), 0x00EFu);
 279              		.loc 1 212 0
 280 001e 3D4B     		ldr	r3, .L16+16
 281 0020 EF22     		movs	r2, #239
 282 0022 1A80     		strh	r2, [r3]	@ movhi
 213:.\Generated_Source\PSoC5/cyfitter_cfg.c **** 	CY_SET_XTND_REG8((void CYFAR *)(CYREG_CLKDIST_DCFG2_CFG0 + 0x2u), 0x18u);
 283              		.loc 1 213 0
 284 0024 3C4B     		ldr	r3, .L16+20
 285 0026 1822     		movs	r2, #24
 286 0028 1A70     		strb	r2, [r3]
 214:.\Generated_Source\PSoC5/cyfitter_cfg.c **** 	CY_SET_XTND_REG16((void CYFAR *)(CYREG_CLKDIST_DCFG3_CFG0), 0x00EFu);
 287              		.loc 1 214 0
 288 002a 3C4B     		ldr	r3, .L16+24
 289 002c EF22     		movs	r2, #239
 290 002e 1A80     		strh	r2, [r3]	@ movhi
 215:.\Generated_Source\PSoC5/cyfitter_cfg.c **** 	CY_SET_XTND_REG8((void CYFAR *)(CYREG_CLKDIST_DCFG3_CFG0 + 0x2u), 0x18u);
 291              		.loc 1 215 0
 292 0030 3B4B     		ldr	r3, .L16+28
 293 0032 1822     		movs	r2, #24
 294 0034 1A70     		strb	r2, [r3]
 216:.\Generated_Source\PSoC5/cyfitter_cfg.c **** 	CY_SET_XTND_REG16((void CYFAR *)(CYREG_CLKDIST_DCFG4_CFG0), 0x00EFu);
ARM GAS  C:\Users\IEUser\AppData\Local\Temp\ccOs41ig.s 			page 10


 295              		.loc 1 216 0
 296 0036 3B4B     		ldr	r3, .L16+32
 297 0038 EF22     		movs	r2, #239
 298 003a 1A80     		strh	r2, [r3]	@ movhi
 217:.\Generated_Source\PSoC5/cyfitter_cfg.c **** 	CY_SET_XTND_REG8((void CYFAR *)(CYREG_CLKDIST_DCFG4_CFG0 + 0x2u), 0x18u);
 299              		.loc 1 217 0
 300 003c 3A4B     		ldr	r3, .L16+36
 301 003e 1822     		movs	r2, #24
 302 0040 1A70     		strb	r2, [r3]
 218:.\Generated_Source\PSoC5/cyfitter_cfg.c **** 	CY_SET_XTND_REG16((void CYFAR *)(CYREG_CLKDIST_DCFG5_CFG0), 0x00EFu);
 303              		.loc 1 218 0
 304 0042 3A4B     		ldr	r3, .L16+40
 305 0044 EF22     		movs	r2, #239
 306 0046 1A80     		strh	r2, [r3]	@ movhi
 219:.\Generated_Source\PSoC5/cyfitter_cfg.c **** 	CY_SET_XTND_REG8((void CYFAR *)(CYREG_CLKDIST_DCFG5_CFG0 + 0x2u), 0x18u);
 307              		.loc 1 219 0
 308 0048 394B     		ldr	r3, .L16+44
 309 004a 1822     		movs	r2, #24
 310 004c 1A70     		strb	r2, [r3]
 220:.\Generated_Source\PSoC5/cyfitter_cfg.c **** 
 221:.\Generated_Source\PSoC5/cyfitter_cfg.c **** 	/* Configure ILO based on settings from Clock DWR */
 222:.\Generated_Source\PSoC5/cyfitter_cfg.c **** 	CY_SET_XTND_REG8((void CYFAR *)(CYREG_SLOWCLK_ILO_CR0), 0x02u);
 311              		.loc 1 222 0
 312 004e 394B     		ldr	r3, .L16+48
 313 0050 0222     		movs	r2, #2
 314 0052 1A70     		strb	r2, [r3]
 223:.\Generated_Source\PSoC5/cyfitter_cfg.c **** 	CY_SET_XTND_REG8((void CYFAR *)(CYREG_CLKDIST_CR), 0x08u);
 315              		.loc 1 223 0
 316 0054 4FF04023 		mov	r3, #1073758208
 317 0058 0822     		movs	r2, #8
 318 005a 1A70     		strb	r2, [r3]
 224:.\Generated_Source\PSoC5/cyfitter_cfg.c **** 
 225:.\Generated_Source\PSoC5/cyfitter_cfg.c **** 	/* Configure IMO based on settings from Clock DWR */
 226:.\Generated_Source\PSoC5/cyfitter_cfg.c **** 	CY_SET_XTND_REG8((void CYFAR *)(CYREG_FASTCLK_IMO_CR), 0x03u);
 319              		.loc 1 226 0
 320 005c 364B     		ldr	r3, .L16+52
 321 005e 0322     		movs	r2, #3
 322 0060 1A70     		strb	r2, [r3]
 227:.\Generated_Source\PSoC5/cyfitter_cfg.c **** 	CY_SET_XTND_REG8((void CYFAR *)(CYREG_IMO_TR1), (CY_GET_XTND_REG8((void CYFAR *)CYREG_FLSHID_CUST_
 323              		.loc 1 227 0
 324 0062 364B     		ldr	r3, .L16+56
 325 0064 364A     		ldr	r2, .L16+60
 326 0066 1278     		ldrb	r2, [r2]
 327 0068 D2B2     		uxtb	r2, r2
 328 006a 1A70     		strb	r2, [r3]
 228:.\Generated_Source\PSoC5/cyfitter_cfg.c **** 
 229:.\Generated_Source\PSoC5/cyfitter_cfg.c **** 	/* Configure PLL based on settings from Clock DWR */
 230:.\Generated_Source\PSoC5/cyfitter_cfg.c **** 	CY_SET_XTND_REG16((void CYFAR *)(CYREG_FASTCLK_PLL_P), 0x0008u);
 329              		.loc 1 230 0
 330 006c 354B     		ldr	r3, .L16+64
 331 006e 0822     		movs	r2, #8
 332 0070 1A80     		strh	r2, [r3]	@ movhi
 231:.\Generated_Source\PSoC5/cyfitter_cfg.c **** 	CY_SET_XTND_REG16((void CYFAR *)(CYREG_FASTCLK_PLL_CFG0), 0x1251u);
 333              		.loc 1 231 0
 334 0072 354B     		ldr	r3, .L16+68
 335 0074 41F25122 		movw	r2, #4689
 336 0078 1A80     		strh	r2, [r3]	@ movhi
ARM GAS  C:\Users\IEUser\AppData\Local\Temp\ccOs41ig.s 			page 11


 232:.\Generated_Source\PSoC5/cyfitter_cfg.c **** 	/* Wait up to 250us for the PLL to lock */
 233:.\Generated_Source\PSoC5/cyfitter_cfg.c **** 	pllLock = 0u;
 337              		.loc 1 233 0
 338 007a 0023     		movs	r3, #0
 339 007c FB70     		strb	r3, [r7, #3]
 234:.\Generated_Source\PSoC5/cyfitter_cfg.c **** 	for (timeout = 250u / 10u; (timeout > 0u) && (pllLock != 0x03u); timeout--)
 340              		.loc 1 234 0
 341 007e 1923     		movs	r3, #25
 342 0080 7B60     		str	r3, [r7, #4]
 343 0082 14E0     		b	.L12
 344              	.L14:
 235:.\Generated_Source\PSoC5/cyfitter_cfg.c **** 	{ 
 236:.\Generated_Source\PSoC5/cyfitter_cfg.c **** 		pllLock = 0x03u & ((uint8)((uint8)pllLock << 1) | ((CY_GET_XTND_REG8((void CYFAR *)CYREG_FASTCLK_
 345              		.loc 1 236 0 discriminator 1
 346 0084 FB78     		ldrb	r3, [r7, #3]
 347 0086 5B00     		lsls	r3, r3, #1
 348 0088 DAB2     		uxtb	r2, r3
 349 008a 304B     		ldr	r3, .L16+72
 350 008c 1B78     		ldrb	r3, [r3]
 351 008e DBB2     		uxtb	r3, r3
 352 0090 03F00103 		and	r3, r3, #1
 353 0094 DBB2     		uxtb	r3, r3
 354 0096 1343     		orrs	r3, r3, r2
 355 0098 DBB2     		uxtb	r3, r3
 356 009a 03F00303 		and	r3, r3, #3
 357 009e FB70     		strb	r3, [r7, #3]
 237:.\Generated_Source\PSoC5/cyfitter_cfg.c **** 		CyDelayCycles(10u * 48u); /* Delay 10us based on 48MHz clock */
 358              		.loc 1 237 0 discriminator 1
 359 00a0 4FF4F070 		mov	r0, #480
 360 00a4 FFF7FEFF 		bl	CyDelayCycles
 234:.\Generated_Source\PSoC5/cyfitter_cfg.c **** 	for (timeout = 250u / 10u; (timeout > 0u) && (pllLock != 0x03u); timeout--)
 361              		.loc 1 234 0 discriminator 1
 362 00a8 7B68     		ldr	r3, [r7, #4]
 363 00aa 013B     		subs	r3, r3, #1
 364 00ac 7B60     		str	r3, [r7, #4]
 365              	.L12:
 366 00ae 7B68     		ldr	r3, [r7, #4]
 367 00b0 002B     		cmp	r3, #0
 368 00b2 02D0     		beq	.L13
 234:.\Generated_Source\PSoC5/cyfitter_cfg.c **** 	for (timeout = 250u / 10u; (timeout > 0u) && (pllLock != 0x03u); timeout--)
 369              		.loc 1 234 0 is_stmt 0 discriminator 2
 370 00b4 FB78     		ldrb	r3, [r7, #3]	@ zero_extendqisi2
 371 00b6 032B     		cmp	r3, #3
 372 00b8 E4D1     		bne	.L14
 373              	.L13:
 238:.\Generated_Source\PSoC5/cyfitter_cfg.c **** 	}
 239:.\Generated_Source\PSoC5/cyfitter_cfg.c **** 	/* If we ran out of time the PLL didn't lock so go to the error function */
 240:.\Generated_Source\PSoC5/cyfitter_cfg.c **** 	if (timeout == 0u)
 374              		.loc 1 240 0 is_stmt 1
 375 00ba 7B68     		ldr	r3, [r7, #4]
 376 00bc 002B     		cmp	r3, #0
 377 00be 02D1     		bne	.L15
 241:.\Generated_Source\PSoC5/cyfitter_cfg.c **** 	{
 242:.\Generated_Source\PSoC5/cyfitter_cfg.c **** 		CyClockStartupError(CYCLOCKSTART_PLL_ERROR);
 378              		.loc 1 242 0
 379 00c0 0320     		movs	r0, #3
 380 00c2 FFF7FEFF 		bl	CyClockStartupError
ARM GAS  C:\Users\IEUser\AppData\Local\Temp\ccOs41ig.s 			page 12


 381              	.L15:
 243:.\Generated_Source\PSoC5/cyfitter_cfg.c **** 	}
 244:.\Generated_Source\PSoC5/cyfitter_cfg.c **** 
 245:.\Generated_Source\PSoC5/cyfitter_cfg.c **** 	/* Configure Bus/Master Clock based on settings from Clock DWR */
 246:.\Generated_Source\PSoC5/cyfitter_cfg.c **** 	CY_SET_XTND_REG16((void CYFAR *)(CYREG_CLKDIST_MSTR0), 0x0100u);
 382              		.loc 1 246 0
 383 00c6 224B     		ldr	r3, .L16+76
 384 00c8 4FF48072 		mov	r2, #256
 385 00cc 1A80     		strh	r2, [r3]	@ movhi
 247:.\Generated_Source\PSoC5/cyfitter_cfg.c **** 	CY_SET_XTND_REG8((void CYFAR *)(CYREG_CLKDIST_MSTR0), 0x07u);
 386              		.loc 1 247 0
 387 00ce 204B     		ldr	r3, .L16+76
 388 00d0 0722     		movs	r2, #7
 389 00d2 1A70     		strb	r2, [r3]
 248:.\Generated_Source\PSoC5/cyfitter_cfg.c **** 	CY_SET_XTND_REG8((void CYFAR *)(CYREG_CLKDIST_BCFG0), 0x00u);
 390              		.loc 1 248 0
 391 00d4 1F4B     		ldr	r3, .L16+80
 392 00d6 0022     		movs	r2, #0
 393 00d8 1A70     		strb	r2, [r3]
 249:.\Generated_Source\PSoC5/cyfitter_cfg.c **** 	CY_SET_XTND_REG8((void CYFAR *)(CYREG_CLKDIST_BCFG2), 0x48u);
 394              		.loc 1 249 0
 395 00da 1F4B     		ldr	r3, .L16+84
 396 00dc 4822     		movs	r2, #72
 397 00de 1A70     		strb	r2, [r3]
 250:.\Generated_Source\PSoC5/cyfitter_cfg.c **** 	CY_SET_XTND_REG8((void CYFAR *)(CYREG_CLKDIST_MSTR0), 0x00u);
 398              		.loc 1 250 0
 399 00e0 1B4B     		ldr	r3, .L16+76
 400 00e2 0022     		movs	r2, #0
 401 00e4 1A70     		strb	r2, [r3]
 251:.\Generated_Source\PSoC5/cyfitter_cfg.c **** 	CY_SET_XTND_REG8((void CYFAR *)(CYREG_CLKDIST_LD), 0x02u);
 402              		.loc 1 251 0
 403 00e6 1D4B     		ldr	r3, .L16+88
 404 00e8 0222     		movs	r2, #2
 405 00ea 1A70     		strb	r2, [r3]
 252:.\Generated_Source\PSoC5/cyfitter_cfg.c **** 
 253:.\Generated_Source\PSoC5/cyfitter_cfg.c **** 	CY_SET_XTND_REG8((void CYFAR *)(CYREG_PM_ACT_CFG2), ((CY_GET_XTND_REG8((void CYFAR *)CYREG_PM_ACT_
 406              		.loc 1 253 0
 407 00ec 1C4B     		ldr	r3, .L16+92
 408 00ee 1C4A     		ldr	r2, .L16+92
 409 00f0 1278     		ldrb	r2, [r2]
 410 00f2 D2B2     		uxtb	r2, r2
 411 00f4 42F03F02 		orr	r2, r2, #63
 412 00f8 D2B2     		uxtb	r2, r2
 413 00fa 1A70     		strb	r2, [r3]
 254:.\Generated_Source\PSoC5/cyfitter_cfg.c **** }
 414              		.loc 1 254 0
 415 00fc 0837     		adds	r7, r7, #8
 416 00fe BD46     		mov	sp, r7
 417              		@ sp needed
 418 0100 80BD     		pop	{r7, pc}
 419              	.L17:
 420 0102 00BF     		.align	2
 421              	.L16:
 422 0104 80400040 		.word	1073758336
 423 0108 82400040 		.word	1073758338
 424 010c 84400040 		.word	1073758340
 425 0110 86400040 		.word	1073758342
ARM GAS  C:\Users\IEUser\AppData\Local\Temp\ccOs41ig.s 			page 13


 426 0114 88400040 		.word	1073758344
 427 0118 8A400040 		.word	1073758346
 428 011c 8C400040 		.word	1073758348
 429 0120 8E400040 		.word	1073758350
 430 0124 90400040 		.word	1073758352
 431 0128 92400040 		.word	1073758354
 432 012c 94400040 		.word	1073758356
 433 0130 96400040 		.word	1073758358
 434 0134 00430040 		.word	1073758976
 435 0138 00420040 		.word	1073758720
 436 013c A1460040 		.word	1073759905
 437 0140 08010049 		.word	1224737032
 438 0144 22420040 		.word	1073758754
 439 0148 20420040 		.word	1073758752
 440 014c 25420040 		.word	1073758757
 441 0150 04400040 		.word	1073758212
 442 0154 06400040 		.word	1073758214
 443 0158 08400040 		.word	1073758216
 444 015c 01400040 		.word	1073758209
 445 0160 A2430040 		.word	1073759138
 446              		.cfi_endproc
 447              	.LFE5:
 448              		.size	ClockSetup, .-ClockSetup
 449              		.section	.text.AnalogSetDefault,"ax",%progbits
 450              		.align	2
 451              		.thumb
 452              		.thumb_func
 453              		.type	AnalogSetDefault, %function
 454              	AnalogSetDefault:
 455              	.LFB6:
 255:.\Generated_Source\PSoC5/cyfitter_cfg.c **** 
 256:.\Generated_Source\PSoC5/cyfitter_cfg.c **** 
 257:.\Generated_Source\PSoC5/cyfitter_cfg.c **** /* Analog API Functions */
 258:.\Generated_Source\PSoC5/cyfitter_cfg.c **** 
 259:.\Generated_Source\PSoC5/cyfitter_cfg.c **** 
 260:.\Generated_Source\PSoC5/cyfitter_cfg.c **** /*******************************************************************************
 261:.\Generated_Source\PSoC5/cyfitter_cfg.c **** * Function Name: AnalogSetDefault
 262:.\Generated_Source\PSoC5/cyfitter_cfg.c **** ********************************************************************************
 263:.\Generated_Source\PSoC5/cyfitter_cfg.c **** *
 264:.\Generated_Source\PSoC5/cyfitter_cfg.c **** * Summary:
 265:.\Generated_Source\PSoC5/cyfitter_cfg.c **** *  Sets up the analog portions of the chip to default values based on chip
 266:.\Generated_Source\PSoC5/cyfitter_cfg.c **** *  configuration options from the project.
 267:.\Generated_Source\PSoC5/cyfitter_cfg.c **** *
 268:.\Generated_Source\PSoC5/cyfitter_cfg.c **** * Parameters:
 269:.\Generated_Source\PSoC5/cyfitter_cfg.c **** *  void
 270:.\Generated_Source\PSoC5/cyfitter_cfg.c **** *
 271:.\Generated_Source\PSoC5/cyfitter_cfg.c **** * Return:
 272:.\Generated_Source\PSoC5/cyfitter_cfg.c **** *  void
 273:.\Generated_Source\PSoC5/cyfitter_cfg.c **** *
 274:.\Generated_Source\PSoC5/cyfitter_cfg.c **** *******************************************************************************/
 275:.\Generated_Source\PSoC5/cyfitter_cfg.c **** static void AnalogSetDefault(void);
 276:.\Generated_Source\PSoC5/cyfitter_cfg.c **** static void AnalogSetDefault(void)
 277:.\Generated_Source\PSoC5/cyfitter_cfg.c **** {
 456              		.loc 1 277 0
 457              		.cfi_startproc
 458              		@ args = 0, pretend = 0, frame = 8
 459              		@ frame_needed = 1, uses_anonymous_args = 0
ARM GAS  C:\Users\IEUser\AppData\Local\Temp\ccOs41ig.s 			page 14


 460              		@ link register save eliminated.
 461 0000 80B4     		push	{r7}
 462              		.cfi_def_cfa_offset 4
 463              		.cfi_offset 7, -4
 464 0002 83B0     		sub	sp, sp, #12
 465              		.cfi_def_cfa_offset 16
 466 0004 00AF     		add	r7, sp, #0
 467              		.cfi_def_cfa_register 7
 278:.\Generated_Source\PSoC5/cyfitter_cfg.c **** 	uint8 bg_xover_inl_trim = CY_GET_XTND_REG8((void CYFAR *)(CYREG_FLSHID_MFG_CFG_BG_XOVER_INL_TRIM +
 468              		.loc 1 278 0
 469 0006 204B     		ldr	r3, .L19
 470 0008 1B78     		ldrb	r3, [r3]
 471 000a FB71     		strb	r3, [r7, #7]
 279:.\Generated_Source\PSoC5/cyfitter_cfg.c **** 	uint8 cr4 = CY_GET_XTND_REG8((void CYFAR *)(CYREG_RESET_CR4));
 472              		.loc 1 279 0
 473 000c 1F4B     		ldr	r3, .L19+4
 474 000e 1B78     		ldrb	r3, [r3]
 475 0010 BB71     		strb	r3, [r7, #6]
 280:.\Generated_Source\PSoC5/cyfitter_cfg.c **** 	uint8 cr5 = CY_GET_XTND_REG8((void CYFAR *)(CYREG_RESET_CR5));
 476              		.loc 1 280 0
 477 0012 1F4B     		ldr	r3, .L19+8
 478 0014 1B78     		ldrb	r3, [r3]
 479 0016 7B71     		strb	r3, [r7, #5]
 281:.\Generated_Source\PSoC5/cyfitter_cfg.c **** 	CY_SET_XTND_REG8((void CYFAR *)(CYREG_BG_DFT0), (bg_xover_inl_trim & 0x07u));
 480              		.loc 1 281 0
 481 0018 1E4B     		ldr	r3, .L19+12
 482 001a FA79     		ldrb	r2, [r7, #7]
 483 001c 02F00702 		and	r2, r2, #7
 484 0020 D2B2     		uxtb	r2, r2
 485 0022 1A70     		strb	r2, [r3]
 282:.\Generated_Source\PSoC5/cyfitter_cfg.c **** 	CY_SET_XTND_REG8((void CYFAR *)(CYREG_BG_DFT1), ((bg_xover_inl_trim >> 4) & 0x0Fu));
 486              		.loc 1 282 0
 487 0024 1C4B     		ldr	r3, .L19+16
 488 0026 FA79     		ldrb	r2, [r7, #7]	@ zero_extendqisi2
 489 0028 1209     		lsrs	r2, r2, #4
 490 002a D2B2     		uxtb	r2, r2
 491 002c 1A70     		strb	r2, [r3]
 283:.\Generated_Source\PSoC5/cyfitter_cfg.c **** 	/* Disable PRES while setting up SAR voltage reference */
 284:.\Generated_Source\PSoC5/cyfitter_cfg.c **** 	CY_SET_XTND_REG8((void CYFAR *)(CYREG_RESET_CR4), (cr4 | 0x03u));
 492              		.loc 1 284 0
 493 002e 174B     		ldr	r3, .L19+4
 494 0030 BA79     		ldrb	r2, [r7, #6]
 495 0032 42F00302 		orr	r2, r2, #3
 496 0036 D2B2     		uxtb	r2, r2
 497 0038 1A70     		strb	r2, [r3]
 285:.\Generated_Source\PSoC5/cyfitter_cfg.c **** 	CY_SET_XTND_REG8((void CYFAR *)(CYREG_RESET_CR5), (cr5 | 0x03u));
 498              		.loc 1 285 0
 499 003a 154B     		ldr	r3, .L19+8
 500 003c 7A79     		ldrb	r2, [r7, #5]
 501 003e 42F00302 		orr	r2, r2, #3
 502 0042 D2B2     		uxtb	r2, r2
 503 0044 1A70     		strb	r2, [r3]
 286:.\Generated_Source\PSoC5/cyfitter_cfg.c **** 	CY_SET_XTND_REG8((void CYFAR *)CYREG_PRT4_AG, 0x02u);
 504              		.loc 1 286 0
 505 0046 154B     		ldr	r3, .L19+20
 506 0048 0222     		movs	r2, #2
 507 004a 1A70     		strb	r2, [r3]
ARM GAS  C:\Users\IEUser\AppData\Local\Temp\ccOs41ig.s 			page 15


 287:.\Generated_Source\PSoC5/cyfitter_cfg.c **** 	CY_SET_XTND_REG8((void CYFAR *)CYREG_PRT15_AG, 0x20u);
 508              		.loc 1 287 0
 509 004c 144B     		ldr	r3, .L19+24
 510 004e 2022     		movs	r2, #32
 511 0050 1A70     		strb	r2, [r3]
 288:.\Generated_Source\PSoC5/cyfitter_cfg.c **** 	CY_SET_XTND_REG8((void CYFAR *)CYREG_SAR1_CSR1, 0x80u);
 512              		.loc 1 288 0
 513 0052 144B     		ldr	r3, .L19+28
 514 0054 8022     		movs	r2, #128
 515 0056 1A70     		strb	r2, [r3]
 289:.\Generated_Source\PSoC5/cyfitter_cfg.c **** 	CY_SET_XTND_REG8((void CYFAR *)CYREG_SC0_SW8, 0x20u);
 516              		.loc 1 289 0
 517 0058 134B     		ldr	r3, .L19+32
 518 005a 2022     		movs	r2, #32
 519 005c 1A70     		strb	r2, [r3]
 290:.\Generated_Source\PSoC5/cyfitter_cfg.c **** 	CY_SET_XTND_REG8((void CYFAR *)CYREG_DSM0_SW0, 0x12u);
 520              		.loc 1 290 0
 521 005e 134B     		ldr	r3, .L19+36
 522 0060 1222     		movs	r2, #18
 523 0062 1A70     		strb	r2, [r3]
 291:.\Generated_Source\PSoC5/cyfitter_cfg.c **** 	CY_SET_XTND_REG8((void CYFAR *)CYREG_SAR1_SW3, 0x20u);
 524              		.loc 1 291 0
 525 0064 124B     		ldr	r3, .L19+40
 526 0066 2022     		movs	r2, #32
 527 0068 1A70     		strb	r2, [r3]
 292:.\Generated_Source\PSoC5/cyfitter_cfg.c **** 	CY_SET_XTND_REG8((void CYFAR *)(CYREG_RESET_CR5), (cr5));
 528              		.loc 1 292 0
 529 006a 094B     		ldr	r3, .L19+8
 530 006c 7A79     		ldrb	r2, [r7, #5]
 531 006e 1A70     		strb	r2, [r3]
 293:.\Generated_Source\PSoC5/cyfitter_cfg.c **** 	CY_SET_XTND_REG8((void CYFAR *)(CYREG_RESET_CR4), (cr4));
 532              		.loc 1 293 0
 533 0070 064B     		ldr	r3, .L19+4
 534 0072 BA79     		ldrb	r2, [r7, #6]
 535 0074 1A70     		strb	r2, [r3]
 294:.\Generated_Source\PSoC5/cyfitter_cfg.c **** 	CY_SET_XTND_REG8((void CYFAR *)CYREG_PUMP_CR0, 0x44u);
 536              		.loc 1 294 0
 537 0076 0F4B     		ldr	r3, .L19+44
 538 0078 4422     		movs	r2, #68
 539 007a 1A70     		strb	r2, [r3]
 295:.\Generated_Source\PSoC5/cyfitter_cfg.c **** }
 540              		.loc 1 295 0
 541 007c 0C37     		adds	r7, r7, #12
 542 007e BD46     		mov	sp, r7
 543              		@ sp needed
 544 0080 5DF8047B 		ldr	r7, [sp], #4
 545 0084 7047     		bx	lr
 546              	.L20:
 547 0086 00BF     		.align	2
 548              	.L19:
 549 0088 CF010049 		.word	1224737231
 550 008c F8460040 		.word	1073759992
 551 0090 F9460040 		.word	1073759993
 552 0094 6E580040 		.word	1073764462
 553 0098 6F580040 		.word	1073764463
 554 009c 4D510040 		.word	1073762637
 555 00a0 FD510040 		.word	1073762813
ARM GAS  C:\Users\IEUser\AppData\Local\Temp\ccOs41ig.s 			page 16


 556 00a4 09590040 		.word	1073764617
 557 00a8 085A0040 		.word	1073764872
 558 00ac 005B0040 		.word	1073765120
 559 00b0 2B5B0040 		.word	1073765163
 560 00b4 76580040 		.word	1073764470
 561              		.cfi_endproc
 562              	.LFE6:
 563              		.size	AnalogSetDefault, .-AnalogSetDefault
 564              		.section	.text.SetAnalogRoutingPumps,"ax",%progbits
 565              		.align	2
 566              		.global	SetAnalogRoutingPumps
 567              		.thumb
 568              		.thumb_func
 569              		.type	SetAnalogRoutingPumps, %function
 570              	SetAnalogRoutingPumps:
 571              	.LFB7:
 296:.\Generated_Source\PSoC5/cyfitter_cfg.c **** 
 297:.\Generated_Source\PSoC5/cyfitter_cfg.c **** 
 298:.\Generated_Source\PSoC5/cyfitter_cfg.c **** /*******************************************************************************
 299:.\Generated_Source\PSoC5/cyfitter_cfg.c **** * Function Name: SetAnalogRoutingPumps
 300:.\Generated_Source\PSoC5/cyfitter_cfg.c **** ********************************************************************************
 301:.\Generated_Source\PSoC5/cyfitter_cfg.c **** *
 302:.\Generated_Source\PSoC5/cyfitter_cfg.c **** * Summary:
 303:.\Generated_Source\PSoC5/cyfitter_cfg.c **** * Enables or disables the analog pumps feeding analog routing switches.
 304:.\Generated_Source\PSoC5/cyfitter_cfg.c **** * Intended to be called at startup, based on the Vdda system configuration;
 305:.\Generated_Source\PSoC5/cyfitter_cfg.c **** * may be called during operation when the user informs us that the Vdda voltage
 306:.\Generated_Source\PSoC5/cyfitter_cfg.c **** * crossed the pump threshold.
 307:.\Generated_Source\PSoC5/cyfitter_cfg.c **** *
 308:.\Generated_Source\PSoC5/cyfitter_cfg.c **** * Parameters:
 309:.\Generated_Source\PSoC5/cyfitter_cfg.c **** *  enabled - 1 to enable the pumps, 0 to disable the pumps
 310:.\Generated_Source\PSoC5/cyfitter_cfg.c **** *
 311:.\Generated_Source\PSoC5/cyfitter_cfg.c **** * Return:
 312:.\Generated_Source\PSoC5/cyfitter_cfg.c **** *  void
 313:.\Generated_Source\PSoC5/cyfitter_cfg.c **** *
 314:.\Generated_Source\PSoC5/cyfitter_cfg.c **** *******************************************************************************/
 315:.\Generated_Source\PSoC5/cyfitter_cfg.c **** void SetAnalogRoutingPumps(uint8 enabled)
 316:.\Generated_Source\PSoC5/cyfitter_cfg.c **** {
 572              		.loc 1 316 0
 573              		.cfi_startproc
 574              		@ args = 0, pretend = 0, frame = 16
 575              		@ frame_needed = 1, uses_anonymous_args = 0
 576              		@ link register save eliminated.
 577 0000 80B4     		push	{r7}
 578              		.cfi_def_cfa_offset 4
 579              		.cfi_offset 7, -4
 580 0002 85B0     		sub	sp, sp, #20
 581              		.cfi_def_cfa_offset 24
 582 0004 00AF     		add	r7, sp, #0
 583              		.cfi_def_cfa_register 7
 584 0006 0346     		mov	r3, r0
 585 0008 FB71     		strb	r3, [r7, #7]
 317:.\Generated_Source\PSoC5/cyfitter_cfg.c **** 	uint8 regValue = CY_GET_XTND_REG8((void CYFAR *)CYREG_PUMP_CR0);
 586              		.loc 1 317 0
 587 000a 0B4B     		ldr	r3, .L24
 588 000c 1B78     		ldrb	r3, [r3]
 589 000e FB73     		strb	r3, [r7, #15]
 318:.\Generated_Source\PSoC5/cyfitter_cfg.c **** 	if (enabled != 0u)
ARM GAS  C:\Users\IEUser\AppData\Local\Temp\ccOs41ig.s 			page 17


 590              		.loc 1 318 0
 591 0010 FB79     		ldrb	r3, [r7, #7]	@ zero_extendqisi2
 592 0012 002B     		cmp	r3, #0
 593 0014 04D0     		beq	.L22
 319:.\Generated_Source\PSoC5/cyfitter_cfg.c **** 	{
 320:.\Generated_Source\PSoC5/cyfitter_cfg.c **** 		regValue |= 0x22u;
 594              		.loc 1 320 0
 595 0016 FB7B     		ldrb	r3, [r7, #15]
 596 0018 43F02203 		orr	r3, r3, #34
 597 001c FB73     		strb	r3, [r7, #15]
 598 001e 03E0     		b	.L23
 599              	.L22:
 321:.\Generated_Source\PSoC5/cyfitter_cfg.c **** 	}
 322:.\Generated_Source\PSoC5/cyfitter_cfg.c **** 	else
 323:.\Generated_Source\PSoC5/cyfitter_cfg.c **** 	{
 324:.\Generated_Source\PSoC5/cyfitter_cfg.c **** 		regValue &= (uint8)~0x22u;
 600              		.loc 1 324 0
 601 0020 FB7B     		ldrb	r3, [r7, #15]
 602 0022 23F02203 		bic	r3, r3, #34
 603 0026 FB73     		strb	r3, [r7, #15]
 604              	.L23:
 325:.\Generated_Source\PSoC5/cyfitter_cfg.c **** 	}
 326:.\Generated_Source\PSoC5/cyfitter_cfg.c **** 	CY_SET_XTND_REG8((void CYFAR *)CYREG_PUMP_CR0, regValue);
 605              		.loc 1 326 0
 606 0028 034B     		ldr	r3, .L24
 607 002a FA7B     		ldrb	r2, [r7, #15]
 608 002c 1A70     		strb	r2, [r3]
 327:.\Generated_Source\PSoC5/cyfitter_cfg.c **** }
 609              		.loc 1 327 0
 610 002e 1437     		adds	r7, r7, #20
 611 0030 BD46     		mov	sp, r7
 612              		@ sp needed
 613 0032 5DF8047B 		ldr	r7, [sp], #4
 614 0036 7047     		bx	lr
 615              	.L25:
 616              		.align	2
 617              	.L24:
 618 0038 76580040 		.word	1073764470
 619              		.cfi_endproc
 620              	.LFE7:
 621              		.size	SetAnalogRoutingPumps, .-SetAnalogRoutingPumps
 622              		.global	OutMux__addrTable
 623              		.section	.rodata
 624              		.align	2
 625              		.type	OutMux__addrTable, %object
 626              		.size	OutMux__addrTable, 32
 627              	OutMux__addrTable:
 628 0000 985A0040 		.word	1073765016
 629 0004 585B0040 		.word	1073765208
 630 0008 885A0040 		.word	1073765000
 631 000c 585B0040 		.word	1073765208
 632 0010 805A0040 		.word	1073764992
 633 0014 24430040 		.word	1073759012
 634 0018 905A0040 		.word	1073765008
 635 001c 24430040 		.word	1073759012
 636              		.global	OutMux__maskTable
 637              		.align	2
ARM GAS  C:\Users\IEUser\AppData\Local\Temp\ccOs41ig.s 			page 18


 638              		.type	OutMux__maskTable, %object
 639              		.size	OutMux__maskTable, 8
 640              	OutMux__maskTable:
 641 0020 10       		.byte	16
 642 0021 10       		.byte	16
 643 0022 02       		.byte	2
 644 0023 02       		.byte	2
 645 0024 02       		.byte	2
 646 0025 00       		.byte	0
 647 0026 10       		.byte	16
 648 0027 00       		.byte	0
 649              		.section	.text.OutMux_Set,"ax",%progbits
 650              		.align	2
 651              		.global	OutMux_Set
 652              		.thumb
 653              		.thumb_func
 654              		.type	OutMux_Set, %function
 655              	OutMux_Set:
 656              	.LFB8:
 328:.\Generated_Source\PSoC5/cyfitter_cfg.c **** 
 329:.\Generated_Source\PSoC5/cyfitter_cfg.c **** #define CY_AMUX_UNUSED CYREG_BOOST_SR
 330:.\Generated_Source\PSoC5/cyfitter_cfg.c **** /* This is an implementation detail of the AMux. Code that depends on it may be
 331:.\Generated_Source\PSoC5/cyfitter_cfg.c ****    incompatible with other versions of PSoC Creator. */
 332:.\Generated_Source\PSoC5/cyfitter_cfg.c **** uint8 CYXDATA * const CYCODE OutMux__addrTable[8] = {
 333:.\Generated_Source\PSoC5/cyfitter_cfg.c **** 	(uint8 CYXDATA *)CYREG_DAC3_SW0, (uint8 CYXDATA *)CYREG_BUS_SW0, 
 334:.\Generated_Source\PSoC5/cyfitter_cfg.c **** 	(uint8 CYXDATA *)CYREG_DAC1_SW0, (uint8 CYXDATA *)CYREG_BUS_SW0, 
 335:.\Generated_Source\PSoC5/cyfitter_cfg.c **** 	(uint8 CYXDATA *)CYREG_DAC0_SW0, (uint8 CYXDATA *)CY_AMUX_UNUSED, 
 336:.\Generated_Source\PSoC5/cyfitter_cfg.c **** 	(uint8 CYXDATA *)CYREG_DAC2_SW0, (uint8 CYXDATA *)CY_AMUX_UNUSED, 
 337:.\Generated_Source\PSoC5/cyfitter_cfg.c **** };
 338:.\Generated_Source\PSoC5/cyfitter_cfg.c **** 
 339:.\Generated_Source\PSoC5/cyfitter_cfg.c **** /* This is an implementation detail of the AMux. Code that depends on it may be
 340:.\Generated_Source\PSoC5/cyfitter_cfg.c ****    incompatible with other versions of PSoC Creator. */
 341:.\Generated_Source\PSoC5/cyfitter_cfg.c **** const uint8 CYCODE OutMux__maskTable[8] = {
 342:.\Generated_Source\PSoC5/cyfitter_cfg.c **** 	0x10u, 0x10u, 
 343:.\Generated_Source\PSoC5/cyfitter_cfg.c **** 	0x02u, 0x02u, 
 344:.\Generated_Source\PSoC5/cyfitter_cfg.c **** 	0x02u, 0x00u, 
 345:.\Generated_Source\PSoC5/cyfitter_cfg.c **** 	0x10u, 0x00u, 
 346:.\Generated_Source\PSoC5/cyfitter_cfg.c **** };
 347:.\Generated_Source\PSoC5/cyfitter_cfg.c **** 
 348:.\Generated_Source\PSoC5/cyfitter_cfg.c **** /*******************************************************************************
 349:.\Generated_Source\PSoC5/cyfitter_cfg.c **** * Function Name: OutMux_Set
 350:.\Generated_Source\PSoC5/cyfitter_cfg.c **** ********************************************************************************
 351:.\Generated_Source\PSoC5/cyfitter_cfg.c **** * Summary:
 352:.\Generated_Source\PSoC5/cyfitter_cfg.c **** *  This function is used to set a particular channel as active on the AMux.
 353:.\Generated_Source\PSoC5/cyfitter_cfg.c **** *
 354:.\Generated_Source\PSoC5/cyfitter_cfg.c **** * Parameters:  
 355:.\Generated_Source\PSoC5/cyfitter_cfg.c **** *   channel - The mux channel input to set as active
 356:.\Generated_Source\PSoC5/cyfitter_cfg.c **** *
 357:.\Generated_Source\PSoC5/cyfitter_cfg.c **** * Return:
 358:.\Generated_Source\PSoC5/cyfitter_cfg.c **** *   void
 359:.\Generated_Source\PSoC5/cyfitter_cfg.c **** *
 360:.\Generated_Source\PSoC5/cyfitter_cfg.c **** *******************************************************************************/
 361:.\Generated_Source\PSoC5/cyfitter_cfg.c **** void OutMux_Set(uint8 channel)
 362:.\Generated_Source\PSoC5/cyfitter_cfg.c **** {
 657              		.loc 1 362 0
 658              		.cfi_startproc
 659              		@ args = 0, pretend = 0, frame = 8
ARM GAS  C:\Users\IEUser\AppData\Local\Temp\ccOs41ig.s 			page 19


 660              		@ frame_needed = 1, uses_anonymous_args = 0
 661              		@ link register save eliminated.
 662 0000 80B4     		push	{r7}
 663              		.cfi_def_cfa_offset 4
 664              		.cfi_offset 7, -4
 665 0002 83B0     		sub	sp, sp, #12
 666              		.cfi_def_cfa_offset 16
 667 0004 00AF     		add	r7, sp, #0
 668              		.cfi_def_cfa_register 7
 669 0006 0346     		mov	r3, r0
 670 0008 FB71     		strb	r3, [r7, #7]
 363:.\Generated_Source\PSoC5/cyfitter_cfg.c **** 	if (channel < 4)
 671              		.loc 1 363 0
 672 000a FB79     		ldrb	r3, [r7, #7]	@ zero_extendqisi2
 673 000c 032B     		cmp	r3, #3
 674 000e 24D8     		bhi	.L26
 364:.\Generated_Source\PSoC5/cyfitter_cfg.c **** 	{
 365:.\Generated_Source\PSoC5/cyfitter_cfg.c **** 		channel += channel;
 675              		.loc 1 365 0
 676 0010 FA79     		ldrb	r2, [r7, #7]
 677 0012 FB79     		ldrb	r3, [r7, #7]
 678 0014 1344     		add	r3, r3, r2
 679 0016 FB71     		strb	r3, [r7, #7]
 366:.\Generated_Source\PSoC5/cyfitter_cfg.c **** 		*OutMux__addrTable[channel] |= OutMux__maskTable[channel];
 680              		.loc 1 366 0
 681 0018 FA79     		ldrb	r2, [r7, #7]	@ zero_extendqisi2
 682 001a 124B     		ldr	r3, .L28
 683 001c 53F82230 		ldr	r3, [r3, r2, lsl #2]
 684 0020 F979     		ldrb	r1, [r7, #7]	@ zero_extendqisi2
 685 0022 104A     		ldr	r2, .L28
 686 0024 52F82120 		ldr	r2, [r2, r1, lsl #2]
 687 0028 1178     		ldrb	r1, [r2]	@ zero_extendqisi2
 688 002a FA79     		ldrb	r2, [r7, #7]	@ zero_extendqisi2
 689 002c 0E48     		ldr	r0, .L28+4
 690 002e 825C     		ldrb	r2, [r0, r2]	@ zero_extendqisi2
 691 0030 0A43     		orrs	r2, r2, r1
 692 0032 D2B2     		uxtb	r2, r2
 693 0034 1A70     		strb	r2, [r3]
 367:.\Generated_Source\PSoC5/cyfitter_cfg.c **** 		channel++;
 694              		.loc 1 367 0
 695 0036 FB79     		ldrb	r3, [r7, #7]	@ zero_extendqisi2
 696 0038 0133     		adds	r3, r3, #1
 697 003a FB71     		strb	r3, [r7, #7]
 368:.\Generated_Source\PSoC5/cyfitter_cfg.c **** 		*OutMux__addrTable[channel] |= OutMux__maskTable[channel];
 698              		.loc 1 368 0
 699 003c FA79     		ldrb	r2, [r7, #7]	@ zero_extendqisi2
 700 003e 094B     		ldr	r3, .L28
 701 0040 53F82230 		ldr	r3, [r3, r2, lsl #2]
 702 0044 F979     		ldrb	r1, [r7, #7]	@ zero_extendqisi2
 703 0046 074A     		ldr	r2, .L28
 704 0048 52F82120 		ldr	r2, [r2, r1, lsl #2]
 705 004c 1178     		ldrb	r1, [r2]	@ zero_extendqisi2
 706 004e FA79     		ldrb	r2, [r7, #7]	@ zero_extendqisi2
 707 0050 0548     		ldr	r0, .L28+4
 708 0052 825C     		ldrb	r2, [r0, r2]	@ zero_extendqisi2
 709 0054 0A43     		orrs	r2, r2, r1
 710 0056 D2B2     		uxtb	r2, r2
ARM GAS  C:\Users\IEUser\AppData\Local\Temp\ccOs41ig.s 			page 20


 711 0058 1A70     		strb	r2, [r3]
 712              	.L26:
 369:.\Generated_Source\PSoC5/cyfitter_cfg.c **** 	}
 370:.\Generated_Source\PSoC5/cyfitter_cfg.c **** }
 713              		.loc 1 370 0
 714 005a 0C37     		adds	r7, r7, #12
 715 005c BD46     		mov	sp, r7
 716              		@ sp needed
 717 005e 5DF8047B 		ldr	r7, [sp], #4
 718 0062 7047     		bx	lr
 719              	.L29:
 720              		.align	2
 721              	.L28:
 722 0064 00000000 		.word	OutMux__addrTable
 723 0068 00000000 		.word	OutMux__maskTable
 724              		.cfi_endproc
 725              	.LFE8:
 726              		.size	OutMux_Set, .-OutMux_Set
 727              		.section	.text.OutMux_Unset,"ax",%progbits
 728              		.align	2
 729              		.global	OutMux_Unset
 730              		.thumb
 731              		.thumb_func
 732              		.type	OutMux_Unset, %function
 733              	OutMux_Unset:
 734              	.LFB9:
 371:.\Generated_Source\PSoC5/cyfitter_cfg.c **** 
 372:.\Generated_Source\PSoC5/cyfitter_cfg.c **** /*******************************************************************************
 373:.\Generated_Source\PSoC5/cyfitter_cfg.c **** * Function Name: OutMux_Unset
 374:.\Generated_Source\PSoC5/cyfitter_cfg.c **** ********************************************************************************
 375:.\Generated_Source\PSoC5/cyfitter_cfg.c **** * Summary:
 376:.\Generated_Source\PSoC5/cyfitter_cfg.c **** *  This function is used to clear a particular channel from being active on the
 377:.\Generated_Source\PSoC5/cyfitter_cfg.c **** *  AMux.
 378:.\Generated_Source\PSoC5/cyfitter_cfg.c **** *
 379:.\Generated_Source\PSoC5/cyfitter_cfg.c **** * Parameters:  
 380:.\Generated_Source\PSoC5/cyfitter_cfg.c **** *   channel - The mux channel input to mark inactive
 381:.\Generated_Source\PSoC5/cyfitter_cfg.c **** *
 382:.\Generated_Source\PSoC5/cyfitter_cfg.c **** * Return:
 383:.\Generated_Source\PSoC5/cyfitter_cfg.c **** *   void
 384:.\Generated_Source\PSoC5/cyfitter_cfg.c **** *
 385:.\Generated_Source\PSoC5/cyfitter_cfg.c **** *******************************************************************************/
 386:.\Generated_Source\PSoC5/cyfitter_cfg.c **** void OutMux_Unset(uint8 channel)
 387:.\Generated_Source\PSoC5/cyfitter_cfg.c **** {
 735              		.loc 1 387 0
 736              		.cfi_startproc
 737              		@ args = 0, pretend = 0, frame = 8
 738              		@ frame_needed = 1, uses_anonymous_args = 0
 739              		@ link register save eliminated.
 740 0000 80B4     		push	{r7}
 741              		.cfi_def_cfa_offset 4
 742              		.cfi_offset 7, -4
 743 0002 83B0     		sub	sp, sp, #12
 744              		.cfi_def_cfa_offset 16
 745 0004 00AF     		add	r7, sp, #0
 746              		.cfi_def_cfa_register 7
 747 0006 0346     		mov	r3, r0
 748 0008 FB71     		strb	r3, [r7, #7]
ARM GAS  C:\Users\IEUser\AppData\Local\Temp\ccOs41ig.s 			page 21


 388:.\Generated_Source\PSoC5/cyfitter_cfg.c **** 	if (channel < 4)
 749              		.loc 1 388 0
 750 000a FB79     		ldrb	r3, [r7, #7]	@ zero_extendqisi2
 751 000c 032B     		cmp	r3, #3
 752 000e 28D8     		bhi	.L30
 389:.\Generated_Source\PSoC5/cyfitter_cfg.c **** 	{
 390:.\Generated_Source\PSoC5/cyfitter_cfg.c **** 		channel += channel;
 753              		.loc 1 390 0
 754 0010 FA79     		ldrb	r2, [r7, #7]
 755 0012 FB79     		ldrb	r3, [r7, #7]
 756 0014 1344     		add	r3, r3, r2
 757 0016 FB71     		strb	r3, [r7, #7]
 391:.\Generated_Source\PSoC5/cyfitter_cfg.c **** 		*OutMux__addrTable[channel] &= (uint8)~OutMux__maskTable[channel];
 758              		.loc 1 391 0
 759 0018 FA79     		ldrb	r2, [r7, #7]	@ zero_extendqisi2
 760 001a 144B     		ldr	r3, .L32
 761 001c 53F82230 		ldr	r3, [r3, r2, lsl #2]
 762 0020 F979     		ldrb	r1, [r7, #7]	@ zero_extendqisi2
 763 0022 124A     		ldr	r2, .L32
 764 0024 52F82120 		ldr	r2, [r2, r1, lsl #2]
 765 0028 1178     		ldrb	r1, [r2]	@ zero_extendqisi2
 766 002a FA79     		ldrb	r2, [r7, #7]	@ zero_extendqisi2
 767 002c 1048     		ldr	r0, .L32+4
 768 002e 825C     		ldrb	r2, [r0, r2]	@ zero_extendqisi2
 769 0030 D243     		mvns	r2, r2
 770 0032 D2B2     		uxtb	r2, r2
 771 0034 0A40     		ands	r2, r2, r1
 772 0036 D2B2     		uxtb	r2, r2
 773 0038 1A70     		strb	r2, [r3]
 392:.\Generated_Source\PSoC5/cyfitter_cfg.c **** 		channel++;
 774              		.loc 1 392 0
 775 003a FB79     		ldrb	r3, [r7, #7]	@ zero_extendqisi2
 776 003c 0133     		adds	r3, r3, #1
 777 003e FB71     		strb	r3, [r7, #7]
 393:.\Generated_Source\PSoC5/cyfitter_cfg.c **** 		*OutMux__addrTable[channel] &= (uint8)~OutMux__maskTable[channel];
 778              		.loc 1 393 0
 779 0040 FA79     		ldrb	r2, [r7, #7]	@ zero_extendqisi2
 780 0042 0A4B     		ldr	r3, .L32
 781 0044 53F82230 		ldr	r3, [r3, r2, lsl #2]
 782 0048 F979     		ldrb	r1, [r7, #7]	@ zero_extendqisi2
 783 004a 084A     		ldr	r2, .L32
 784 004c 52F82120 		ldr	r2, [r2, r1, lsl #2]
 785 0050 1178     		ldrb	r1, [r2]	@ zero_extendqisi2
 786 0052 FA79     		ldrb	r2, [r7, #7]	@ zero_extendqisi2
 787 0054 0648     		ldr	r0, .L32+4
 788 0056 825C     		ldrb	r2, [r0, r2]	@ zero_extendqisi2
 789 0058 D243     		mvns	r2, r2
 790 005a D2B2     		uxtb	r2, r2
 791 005c 0A40     		ands	r2, r2, r1
 792 005e D2B2     		uxtb	r2, r2
 793 0060 1A70     		strb	r2, [r3]
 794              	.L30:
 394:.\Generated_Source\PSoC5/cyfitter_cfg.c **** 	}
 395:.\Generated_Source\PSoC5/cyfitter_cfg.c **** }
 795              		.loc 1 395 0
 796 0062 0C37     		adds	r7, r7, #12
 797 0064 BD46     		mov	sp, r7
ARM GAS  C:\Users\IEUser\AppData\Local\Temp\ccOs41ig.s 			page 22


 798              		@ sp needed
 799 0066 5DF8047B 		ldr	r7, [sp], #4
 800 006a 7047     		bx	lr
 801              	.L33:
 802              		.align	2
 803              	.L32:
 804 006c 00000000 		.word	OutMux__addrTable
 805 0070 00000000 		.word	OutMux__maskTable
 806              		.cfi_endproc
 807              	.LFE9:
 808              		.size	OutMux_Unset, .-OutMux_Unset
 809              		.global	Pot_Vals__addrTable
 810              		.section	.rodata
 811              		.align	2
 812              		.type	Pot_Vals__addrTable, %object
 813              		.size	Pot_Vals__addrTable, 16
 814              	Pot_Vals__addrTable:
 815 0028 3D510040 		.word	1073762621
 816 002c 285B0040 		.word	1073765160
 817 0030 3D510040 		.word	1073762621
 818 0034 285B0040 		.word	1073765160
 819              		.global	Pot_Vals__maskTable
 820              		.align	2
 821              		.type	Pot_Vals__maskTable, %object
 822              		.size	Pot_Vals__maskTable, 4
 823              	Pot_Vals__maskTable:
 824 0038 40       		.byte	64
 825 0039 40       		.byte	64
 826 003a 80       		.byte	-128
 827 003b 80       		.byte	-128
 828              		.section	.text.Pot_Vals_Set,"ax",%progbits
 829              		.align	2
 830              		.global	Pot_Vals_Set
 831              		.thumb
 832              		.thumb_func
 833              		.type	Pot_Vals_Set, %function
 834              	Pot_Vals_Set:
 835              	.LFB10:
 396:.\Generated_Source\PSoC5/cyfitter_cfg.c **** 
 397:.\Generated_Source\PSoC5/cyfitter_cfg.c **** /* This is an implementation detail of the AMux. Code that depends on it may be
 398:.\Generated_Source\PSoC5/cyfitter_cfg.c ****    incompatible with other versions of PSoC Creator. */
 399:.\Generated_Source\PSoC5/cyfitter_cfg.c **** uint8 CYXDATA * const CYCODE Pot_Vals__addrTable[4] = {
 400:.\Generated_Source\PSoC5/cyfitter_cfg.c **** 	(uint8 CYXDATA *)CYREG_PRT3_AG, (uint8 CYXDATA *)CYREG_SAR1_SW0, 
 401:.\Generated_Source\PSoC5/cyfitter_cfg.c **** 	(uint8 CYXDATA *)CYREG_PRT3_AG, (uint8 CYXDATA *)CYREG_SAR1_SW0, 
 402:.\Generated_Source\PSoC5/cyfitter_cfg.c **** };
 403:.\Generated_Source\PSoC5/cyfitter_cfg.c **** 
 404:.\Generated_Source\PSoC5/cyfitter_cfg.c **** /* This is an implementation detail of the AMux. Code that depends on it may be
 405:.\Generated_Source\PSoC5/cyfitter_cfg.c ****    incompatible with other versions of PSoC Creator. */
 406:.\Generated_Source\PSoC5/cyfitter_cfg.c **** const uint8 CYCODE Pot_Vals__maskTable[4] = {
 407:.\Generated_Source\PSoC5/cyfitter_cfg.c **** 	0x40u, 0x40u, 
 408:.\Generated_Source\PSoC5/cyfitter_cfg.c **** 	0x80u, 0x80u, 
 409:.\Generated_Source\PSoC5/cyfitter_cfg.c **** };
 410:.\Generated_Source\PSoC5/cyfitter_cfg.c **** 
 411:.\Generated_Source\PSoC5/cyfitter_cfg.c **** /*******************************************************************************
 412:.\Generated_Source\PSoC5/cyfitter_cfg.c **** * Function Name: Pot_Vals_Set
 413:.\Generated_Source\PSoC5/cyfitter_cfg.c **** ********************************************************************************
 414:.\Generated_Source\PSoC5/cyfitter_cfg.c **** * Summary:
ARM GAS  C:\Users\IEUser\AppData\Local\Temp\ccOs41ig.s 			page 23


 415:.\Generated_Source\PSoC5/cyfitter_cfg.c **** *  This function is used to set a particular channel as active on the AMux.
 416:.\Generated_Source\PSoC5/cyfitter_cfg.c **** *
 417:.\Generated_Source\PSoC5/cyfitter_cfg.c **** * Parameters:  
 418:.\Generated_Source\PSoC5/cyfitter_cfg.c **** *   channel - The mux channel input to set as active
 419:.\Generated_Source\PSoC5/cyfitter_cfg.c **** *
 420:.\Generated_Source\PSoC5/cyfitter_cfg.c **** * Return:
 421:.\Generated_Source\PSoC5/cyfitter_cfg.c **** *   void
 422:.\Generated_Source\PSoC5/cyfitter_cfg.c **** *
 423:.\Generated_Source\PSoC5/cyfitter_cfg.c **** *******************************************************************************/
 424:.\Generated_Source\PSoC5/cyfitter_cfg.c **** void Pot_Vals_Set(uint8 channel)
 425:.\Generated_Source\PSoC5/cyfitter_cfg.c **** {
 836              		.loc 1 425 0
 837              		.cfi_startproc
 838              		@ args = 0, pretend = 0, frame = 8
 839              		@ frame_needed = 1, uses_anonymous_args = 0
 840              		@ link register save eliminated.
 841 0000 80B4     		push	{r7}
 842              		.cfi_def_cfa_offset 4
 843              		.cfi_offset 7, -4
 844 0002 83B0     		sub	sp, sp, #12
 845              		.cfi_def_cfa_offset 16
 846 0004 00AF     		add	r7, sp, #0
 847              		.cfi_def_cfa_register 7
 848 0006 0346     		mov	r3, r0
 849 0008 FB71     		strb	r3, [r7, #7]
 426:.\Generated_Source\PSoC5/cyfitter_cfg.c **** 	if (channel < 2)
 850              		.loc 1 426 0
 851 000a FB79     		ldrb	r3, [r7, #7]	@ zero_extendqisi2
 852 000c 012B     		cmp	r3, #1
 853 000e 24D8     		bhi	.L34
 427:.\Generated_Source\PSoC5/cyfitter_cfg.c **** 	{
 428:.\Generated_Source\PSoC5/cyfitter_cfg.c **** 		channel += channel;
 854              		.loc 1 428 0
 855 0010 FA79     		ldrb	r2, [r7, #7]
 856 0012 FB79     		ldrb	r3, [r7, #7]
 857 0014 1344     		add	r3, r3, r2
 858 0016 FB71     		strb	r3, [r7, #7]
 429:.\Generated_Source\PSoC5/cyfitter_cfg.c **** 		*Pot_Vals__addrTable[channel] |= Pot_Vals__maskTable[channel];
 859              		.loc 1 429 0
 860 0018 FA79     		ldrb	r2, [r7, #7]	@ zero_extendqisi2
 861 001a 124B     		ldr	r3, .L36
 862 001c 53F82230 		ldr	r3, [r3, r2, lsl #2]
 863 0020 F979     		ldrb	r1, [r7, #7]	@ zero_extendqisi2
 864 0022 104A     		ldr	r2, .L36
 865 0024 52F82120 		ldr	r2, [r2, r1, lsl #2]
 866 0028 1178     		ldrb	r1, [r2]	@ zero_extendqisi2
 867 002a FA79     		ldrb	r2, [r7, #7]	@ zero_extendqisi2
 868 002c 0E48     		ldr	r0, .L36+4
 869 002e 825C     		ldrb	r2, [r0, r2]	@ zero_extendqisi2
 870 0030 0A43     		orrs	r2, r2, r1
 871 0032 D2B2     		uxtb	r2, r2
 872 0034 1A70     		strb	r2, [r3]
 430:.\Generated_Source\PSoC5/cyfitter_cfg.c **** 		channel++;
 873              		.loc 1 430 0
 874 0036 FB79     		ldrb	r3, [r7, #7]	@ zero_extendqisi2
 875 0038 0133     		adds	r3, r3, #1
 876 003a FB71     		strb	r3, [r7, #7]
ARM GAS  C:\Users\IEUser\AppData\Local\Temp\ccOs41ig.s 			page 24


 431:.\Generated_Source\PSoC5/cyfitter_cfg.c **** 		*Pot_Vals__addrTable[channel] |= Pot_Vals__maskTable[channel];
 877              		.loc 1 431 0
 878 003c FA79     		ldrb	r2, [r7, #7]	@ zero_extendqisi2
 879 003e 094B     		ldr	r3, .L36
 880 0040 53F82230 		ldr	r3, [r3, r2, lsl #2]
 881 0044 F979     		ldrb	r1, [r7, #7]	@ zero_extendqisi2
 882 0046 074A     		ldr	r2, .L36
 883 0048 52F82120 		ldr	r2, [r2, r1, lsl #2]
 884 004c 1178     		ldrb	r1, [r2]	@ zero_extendqisi2
 885 004e FA79     		ldrb	r2, [r7, #7]	@ zero_extendqisi2
 886 0050 0548     		ldr	r0, .L36+4
 887 0052 825C     		ldrb	r2, [r0, r2]	@ zero_extendqisi2
 888 0054 0A43     		orrs	r2, r2, r1
 889 0056 D2B2     		uxtb	r2, r2
 890 0058 1A70     		strb	r2, [r3]
 891              	.L34:
 432:.\Generated_Source\PSoC5/cyfitter_cfg.c **** 	}
 433:.\Generated_Source\PSoC5/cyfitter_cfg.c **** }
 892              		.loc 1 433 0
 893 005a 0C37     		adds	r7, r7, #12
 894 005c BD46     		mov	sp, r7
 895              		@ sp needed
 896 005e 5DF8047B 		ldr	r7, [sp], #4
 897 0062 7047     		bx	lr
 898              	.L37:
 899              		.align	2
 900              	.L36:
 901 0064 00000000 		.word	Pot_Vals__addrTable
 902 0068 00000000 		.word	Pot_Vals__maskTable
 903              		.cfi_endproc
 904              	.LFE10:
 905              		.size	Pot_Vals_Set, .-Pot_Vals_Set
 906              		.section	.text.Pot_Vals_Unset,"ax",%progbits
 907              		.align	2
 908              		.global	Pot_Vals_Unset
 909              		.thumb
 910              		.thumb_func
 911              		.type	Pot_Vals_Unset, %function
 912              	Pot_Vals_Unset:
 913              	.LFB11:
 434:.\Generated_Source\PSoC5/cyfitter_cfg.c **** 
 435:.\Generated_Source\PSoC5/cyfitter_cfg.c **** /*******************************************************************************
 436:.\Generated_Source\PSoC5/cyfitter_cfg.c **** * Function Name: Pot_Vals_Unset
 437:.\Generated_Source\PSoC5/cyfitter_cfg.c **** ********************************************************************************
 438:.\Generated_Source\PSoC5/cyfitter_cfg.c **** * Summary:
 439:.\Generated_Source\PSoC5/cyfitter_cfg.c **** *  This function is used to clear a particular channel from being active on the
 440:.\Generated_Source\PSoC5/cyfitter_cfg.c **** *  AMux.
 441:.\Generated_Source\PSoC5/cyfitter_cfg.c **** *
 442:.\Generated_Source\PSoC5/cyfitter_cfg.c **** * Parameters:  
 443:.\Generated_Source\PSoC5/cyfitter_cfg.c **** *   channel - The mux channel input to mark inactive
 444:.\Generated_Source\PSoC5/cyfitter_cfg.c **** *
 445:.\Generated_Source\PSoC5/cyfitter_cfg.c **** * Return:
 446:.\Generated_Source\PSoC5/cyfitter_cfg.c **** *   void
 447:.\Generated_Source\PSoC5/cyfitter_cfg.c **** *
 448:.\Generated_Source\PSoC5/cyfitter_cfg.c **** *******************************************************************************/
 449:.\Generated_Source\PSoC5/cyfitter_cfg.c **** void Pot_Vals_Unset(uint8 channel)
 450:.\Generated_Source\PSoC5/cyfitter_cfg.c **** {
ARM GAS  C:\Users\IEUser\AppData\Local\Temp\ccOs41ig.s 			page 25


 914              		.loc 1 450 0
 915              		.cfi_startproc
 916              		@ args = 0, pretend = 0, frame = 8
 917              		@ frame_needed = 1, uses_anonymous_args = 0
 918              		@ link register save eliminated.
 919 0000 80B4     		push	{r7}
 920              		.cfi_def_cfa_offset 4
 921              		.cfi_offset 7, -4
 922 0002 83B0     		sub	sp, sp, #12
 923              		.cfi_def_cfa_offset 16
 924 0004 00AF     		add	r7, sp, #0
 925              		.cfi_def_cfa_register 7
 926 0006 0346     		mov	r3, r0
 927 0008 FB71     		strb	r3, [r7, #7]
 451:.\Generated_Source\PSoC5/cyfitter_cfg.c **** 	if (channel < 2)
 928              		.loc 1 451 0
 929 000a FB79     		ldrb	r3, [r7, #7]	@ zero_extendqisi2
 930 000c 012B     		cmp	r3, #1
 931 000e 28D8     		bhi	.L38
 452:.\Generated_Source\PSoC5/cyfitter_cfg.c **** 	{
 453:.\Generated_Source\PSoC5/cyfitter_cfg.c **** 		channel += channel;
 932              		.loc 1 453 0
 933 0010 FA79     		ldrb	r2, [r7, #7]
 934 0012 FB79     		ldrb	r3, [r7, #7]
 935 0014 1344     		add	r3, r3, r2
 936 0016 FB71     		strb	r3, [r7, #7]
 454:.\Generated_Source\PSoC5/cyfitter_cfg.c **** 		*Pot_Vals__addrTable[channel] &= (uint8)~Pot_Vals__maskTable[channel];
 937              		.loc 1 454 0
 938 0018 FA79     		ldrb	r2, [r7, #7]	@ zero_extendqisi2
 939 001a 144B     		ldr	r3, .L40
 940 001c 53F82230 		ldr	r3, [r3, r2, lsl #2]
 941 0020 F979     		ldrb	r1, [r7, #7]	@ zero_extendqisi2
 942 0022 124A     		ldr	r2, .L40
 943 0024 52F82120 		ldr	r2, [r2, r1, lsl #2]
 944 0028 1178     		ldrb	r1, [r2]	@ zero_extendqisi2
 945 002a FA79     		ldrb	r2, [r7, #7]	@ zero_extendqisi2
 946 002c 1048     		ldr	r0, .L40+4
 947 002e 825C     		ldrb	r2, [r0, r2]	@ zero_extendqisi2
 948 0030 D243     		mvns	r2, r2
 949 0032 D2B2     		uxtb	r2, r2
 950 0034 0A40     		ands	r2, r2, r1
 951 0036 D2B2     		uxtb	r2, r2
 952 0038 1A70     		strb	r2, [r3]
 455:.\Generated_Source\PSoC5/cyfitter_cfg.c **** 		channel++;
 953              		.loc 1 455 0
 954 003a FB79     		ldrb	r3, [r7, #7]	@ zero_extendqisi2
 955 003c 0133     		adds	r3, r3, #1
 956 003e FB71     		strb	r3, [r7, #7]
 456:.\Generated_Source\PSoC5/cyfitter_cfg.c **** 		*Pot_Vals__addrTable[channel] &= (uint8)~Pot_Vals__maskTable[channel];
 957              		.loc 1 456 0
 958 0040 FA79     		ldrb	r2, [r7, #7]	@ zero_extendqisi2
 959 0042 0A4B     		ldr	r3, .L40
 960 0044 53F82230 		ldr	r3, [r3, r2, lsl #2]
 961 0048 F979     		ldrb	r1, [r7, #7]	@ zero_extendqisi2
 962 004a 084A     		ldr	r2, .L40
 963 004c 52F82120 		ldr	r2, [r2, r1, lsl #2]
 964 0050 1178     		ldrb	r1, [r2]	@ zero_extendqisi2
ARM GAS  C:\Users\IEUser\AppData\Local\Temp\ccOs41ig.s 			page 26


 965 0052 FA79     		ldrb	r2, [r7, #7]	@ zero_extendqisi2
 966 0054 0648     		ldr	r0, .L40+4
 967 0056 825C     		ldrb	r2, [r0, r2]	@ zero_extendqisi2
 968 0058 D243     		mvns	r2, r2
 969 005a D2B2     		uxtb	r2, r2
 970 005c 0A40     		ands	r2, r2, r1
 971 005e D2B2     		uxtb	r2, r2
 972 0060 1A70     		strb	r2, [r3]
 973              	.L38:
 457:.\Generated_Source\PSoC5/cyfitter_cfg.c **** 	}
 458:.\Generated_Source\PSoC5/cyfitter_cfg.c **** }
 974              		.loc 1 458 0
 975 0062 0C37     		adds	r7, r7, #12
 976 0064 BD46     		mov	sp, r7
 977              		@ sp needed
 978 0066 5DF8047B 		ldr	r7, [sp], #4
 979 006a 7047     		bx	lr
 980              	.L41:
 981              		.align	2
 982              	.L40:
 983 006c 00000000 		.word	Pot_Vals__addrTable
 984 0070 00000000 		.word	Pot_Vals__maskTable
 985              		.cfi_endproc
 986              	.LFE11:
 987              		.size	Pot_Vals_Unset, .-Pot_Vals_Unset
 988              		.global	Tremolo__addrTable
 989              		.section	.rodata
 990              		.align	2
 991              		.type	Tremolo__addrTable, %object
 992              		.size	Tremolo__addrTable, 16
 993              	Tremolo__addrTable:
 994 003c FD510040 		.word	1073762813
 995 0040 005A0040 		.word	1073764864
 996 0044 24430040 		.word	1073759012
 997 0048 24430040 		.word	1073759012
 998              		.global	Tremolo__maskTable
 999              		.align	2
 1000              		.type	Tremolo__maskTable, %object
 1001              		.size	Tremolo__maskTable, 4
 1002              	Tremolo__maskTable:
 1003 004c 10       		.byte	16
 1004 004d 01       		.byte	1
 1005 004e 00       		.byte	0
 1006 004f 00       		.byte	0
 1007              		.section	.text.Tremolo_Set,"ax",%progbits
 1008              		.align	2
 1009              		.global	Tremolo_Set
 1010              		.thumb
 1011              		.thumb_func
 1012              		.type	Tremolo_Set, %function
 1013              	Tremolo_Set:
 1014              	.LFB12:
 459:.\Generated_Source\PSoC5/cyfitter_cfg.c **** 
 460:.\Generated_Source\PSoC5/cyfitter_cfg.c **** /* This is an implementation detail of the AMux. Code that depends on it may be
 461:.\Generated_Source\PSoC5/cyfitter_cfg.c ****    incompatible with other versions of PSoC Creator. */
 462:.\Generated_Source\PSoC5/cyfitter_cfg.c **** uint8 CYXDATA * const CYCODE Tremolo__addrTable[4] = {
 463:.\Generated_Source\PSoC5/cyfitter_cfg.c **** 	(uint8 CYXDATA *)CYREG_PRT15_AG, (uint8 CYXDATA *)CYREG_SC0_SW0, 
ARM GAS  C:\Users\IEUser\AppData\Local\Temp\ccOs41ig.s 			page 27


 464:.\Generated_Source\PSoC5/cyfitter_cfg.c **** 	(uint8 CYXDATA *)CY_AMUX_UNUSED, (uint8 CYXDATA *)CY_AMUX_UNUSED, 
 465:.\Generated_Source\PSoC5/cyfitter_cfg.c **** };
 466:.\Generated_Source\PSoC5/cyfitter_cfg.c **** 
 467:.\Generated_Source\PSoC5/cyfitter_cfg.c **** /* This is an implementation detail of the AMux. Code that depends on it may be
 468:.\Generated_Source\PSoC5/cyfitter_cfg.c ****    incompatible with other versions of PSoC Creator. */
 469:.\Generated_Source\PSoC5/cyfitter_cfg.c **** const uint8 CYCODE Tremolo__maskTable[4] = {
 470:.\Generated_Source\PSoC5/cyfitter_cfg.c **** 	0x10u, 0x01u, 
 471:.\Generated_Source\PSoC5/cyfitter_cfg.c **** 	0x00u, 0x00u, 
 472:.\Generated_Source\PSoC5/cyfitter_cfg.c **** };
 473:.\Generated_Source\PSoC5/cyfitter_cfg.c **** 
 474:.\Generated_Source\PSoC5/cyfitter_cfg.c **** /*******************************************************************************
 475:.\Generated_Source\PSoC5/cyfitter_cfg.c **** * Function Name: Tremolo_Set
 476:.\Generated_Source\PSoC5/cyfitter_cfg.c **** ********************************************************************************
 477:.\Generated_Source\PSoC5/cyfitter_cfg.c **** * Summary:
 478:.\Generated_Source\PSoC5/cyfitter_cfg.c **** *  This function is used to set a particular channel as active on the AMux.
 479:.\Generated_Source\PSoC5/cyfitter_cfg.c **** *
 480:.\Generated_Source\PSoC5/cyfitter_cfg.c **** * Parameters:  
 481:.\Generated_Source\PSoC5/cyfitter_cfg.c **** *   channel - The mux channel input to set as active
 482:.\Generated_Source\PSoC5/cyfitter_cfg.c **** *
 483:.\Generated_Source\PSoC5/cyfitter_cfg.c **** * Return:
 484:.\Generated_Source\PSoC5/cyfitter_cfg.c **** *   void
 485:.\Generated_Source\PSoC5/cyfitter_cfg.c **** *
 486:.\Generated_Source\PSoC5/cyfitter_cfg.c **** *******************************************************************************/
 487:.\Generated_Source\PSoC5/cyfitter_cfg.c **** void Tremolo_Set(uint8 channel)
 488:.\Generated_Source\PSoC5/cyfitter_cfg.c **** {
 1015              		.loc 1 488 0
 1016              		.cfi_startproc
 1017              		@ args = 0, pretend = 0, frame = 8
 1018              		@ frame_needed = 1, uses_anonymous_args = 0
 1019              		@ link register save eliminated.
 1020 0000 80B4     		push	{r7}
 1021              		.cfi_def_cfa_offset 4
 1022              		.cfi_offset 7, -4
 1023 0002 83B0     		sub	sp, sp, #12
 1024              		.cfi_def_cfa_offset 16
 1025 0004 00AF     		add	r7, sp, #0
 1026              		.cfi_def_cfa_register 7
 1027 0006 0346     		mov	r3, r0
 1028 0008 FB71     		strb	r3, [r7, #7]
 489:.\Generated_Source\PSoC5/cyfitter_cfg.c **** 	if (channel < 2)
 1029              		.loc 1 489 0
 1030 000a FB79     		ldrb	r3, [r7, #7]	@ zero_extendqisi2
 1031 000c 012B     		cmp	r3, #1
 1032 000e 24D8     		bhi	.L42
 490:.\Generated_Source\PSoC5/cyfitter_cfg.c **** 	{
 491:.\Generated_Source\PSoC5/cyfitter_cfg.c **** 		channel += channel;
 1033              		.loc 1 491 0
 1034 0010 FA79     		ldrb	r2, [r7, #7]
 1035 0012 FB79     		ldrb	r3, [r7, #7]
 1036 0014 1344     		add	r3, r3, r2
 1037 0016 FB71     		strb	r3, [r7, #7]
 492:.\Generated_Source\PSoC5/cyfitter_cfg.c **** 		*Tremolo__addrTable[channel] |= Tremolo__maskTable[channel];
 1038              		.loc 1 492 0
 1039 0018 FA79     		ldrb	r2, [r7, #7]	@ zero_extendqisi2
 1040 001a 124B     		ldr	r3, .L44
 1041 001c 53F82230 		ldr	r3, [r3, r2, lsl #2]
 1042 0020 F979     		ldrb	r1, [r7, #7]	@ zero_extendqisi2
ARM GAS  C:\Users\IEUser\AppData\Local\Temp\ccOs41ig.s 			page 28


 1043 0022 104A     		ldr	r2, .L44
 1044 0024 52F82120 		ldr	r2, [r2, r1, lsl #2]
 1045 0028 1178     		ldrb	r1, [r2]	@ zero_extendqisi2
 1046 002a FA79     		ldrb	r2, [r7, #7]	@ zero_extendqisi2
 1047 002c 0E48     		ldr	r0, .L44+4
 1048 002e 825C     		ldrb	r2, [r0, r2]	@ zero_extendqisi2
 1049 0030 0A43     		orrs	r2, r2, r1
 1050 0032 D2B2     		uxtb	r2, r2
 1051 0034 1A70     		strb	r2, [r3]
 493:.\Generated_Source\PSoC5/cyfitter_cfg.c **** 		channel++;
 1052              		.loc 1 493 0
 1053 0036 FB79     		ldrb	r3, [r7, #7]	@ zero_extendqisi2
 1054 0038 0133     		adds	r3, r3, #1
 1055 003a FB71     		strb	r3, [r7, #7]
 494:.\Generated_Source\PSoC5/cyfitter_cfg.c **** 		*Tremolo__addrTable[channel] |= Tremolo__maskTable[channel];
 1056              		.loc 1 494 0
 1057 003c FA79     		ldrb	r2, [r7, #7]	@ zero_extendqisi2
 1058 003e 094B     		ldr	r3, .L44
 1059 0040 53F82230 		ldr	r3, [r3, r2, lsl #2]
 1060 0044 F979     		ldrb	r1, [r7, #7]	@ zero_extendqisi2
 1061 0046 074A     		ldr	r2, .L44
 1062 0048 52F82120 		ldr	r2, [r2, r1, lsl #2]
 1063 004c 1178     		ldrb	r1, [r2]	@ zero_extendqisi2
 1064 004e FA79     		ldrb	r2, [r7, #7]	@ zero_extendqisi2
 1065 0050 0548     		ldr	r0, .L44+4
 1066 0052 825C     		ldrb	r2, [r0, r2]	@ zero_extendqisi2
 1067 0054 0A43     		orrs	r2, r2, r1
 1068 0056 D2B2     		uxtb	r2, r2
 1069 0058 1A70     		strb	r2, [r3]
 1070              	.L42:
 495:.\Generated_Source\PSoC5/cyfitter_cfg.c **** 	}
 496:.\Generated_Source\PSoC5/cyfitter_cfg.c **** }
 1071              		.loc 1 496 0
 1072 005a 0C37     		adds	r7, r7, #12
 1073 005c BD46     		mov	sp, r7
 1074              		@ sp needed
 1075 005e 5DF8047B 		ldr	r7, [sp], #4
 1076 0062 7047     		bx	lr
 1077              	.L45:
 1078              		.align	2
 1079              	.L44:
 1080 0064 00000000 		.word	Tremolo__addrTable
 1081 0068 00000000 		.word	Tremolo__maskTable
 1082              		.cfi_endproc
 1083              	.LFE12:
 1084              		.size	Tremolo_Set, .-Tremolo_Set
 1085              		.section	.text.Tremolo_Unset,"ax",%progbits
 1086              		.align	2
 1087              		.global	Tremolo_Unset
 1088              		.thumb
 1089              		.thumb_func
 1090              		.type	Tremolo_Unset, %function
 1091              	Tremolo_Unset:
 1092              	.LFB13:
 497:.\Generated_Source\PSoC5/cyfitter_cfg.c **** 
 498:.\Generated_Source\PSoC5/cyfitter_cfg.c **** /*******************************************************************************
 499:.\Generated_Source\PSoC5/cyfitter_cfg.c **** * Function Name: Tremolo_Unset
ARM GAS  C:\Users\IEUser\AppData\Local\Temp\ccOs41ig.s 			page 29


 500:.\Generated_Source\PSoC5/cyfitter_cfg.c **** ********************************************************************************
 501:.\Generated_Source\PSoC5/cyfitter_cfg.c **** * Summary:
 502:.\Generated_Source\PSoC5/cyfitter_cfg.c **** *  This function is used to clear a particular channel from being active on the
 503:.\Generated_Source\PSoC5/cyfitter_cfg.c **** *  AMux.
 504:.\Generated_Source\PSoC5/cyfitter_cfg.c **** *
 505:.\Generated_Source\PSoC5/cyfitter_cfg.c **** * Parameters:  
 506:.\Generated_Source\PSoC5/cyfitter_cfg.c **** *   channel - The mux channel input to mark inactive
 507:.\Generated_Source\PSoC5/cyfitter_cfg.c **** *
 508:.\Generated_Source\PSoC5/cyfitter_cfg.c **** * Return:
 509:.\Generated_Source\PSoC5/cyfitter_cfg.c **** *   void
 510:.\Generated_Source\PSoC5/cyfitter_cfg.c **** *
 511:.\Generated_Source\PSoC5/cyfitter_cfg.c **** *******************************************************************************/
 512:.\Generated_Source\PSoC5/cyfitter_cfg.c **** void Tremolo_Unset(uint8 channel)
 513:.\Generated_Source\PSoC5/cyfitter_cfg.c **** {
 1093              		.loc 1 513 0
 1094              		.cfi_startproc
 1095              		@ args = 0, pretend = 0, frame = 8
 1096              		@ frame_needed = 1, uses_anonymous_args = 0
 1097              		@ link register save eliminated.
 1098 0000 80B4     		push	{r7}
 1099              		.cfi_def_cfa_offset 4
 1100              		.cfi_offset 7, -4
 1101 0002 83B0     		sub	sp, sp, #12
 1102              		.cfi_def_cfa_offset 16
 1103 0004 00AF     		add	r7, sp, #0
 1104              		.cfi_def_cfa_register 7
 1105 0006 0346     		mov	r3, r0
 1106 0008 FB71     		strb	r3, [r7, #7]
 514:.\Generated_Source\PSoC5/cyfitter_cfg.c **** 	if (channel < 2)
 1107              		.loc 1 514 0
 1108 000a FB79     		ldrb	r3, [r7, #7]	@ zero_extendqisi2
 1109 000c 012B     		cmp	r3, #1
 1110 000e 28D8     		bhi	.L46
 515:.\Generated_Source\PSoC5/cyfitter_cfg.c **** 	{
 516:.\Generated_Source\PSoC5/cyfitter_cfg.c **** 		channel += channel;
 1111              		.loc 1 516 0
 1112 0010 FA79     		ldrb	r2, [r7, #7]
 1113 0012 FB79     		ldrb	r3, [r7, #7]
 1114 0014 1344     		add	r3, r3, r2
 1115 0016 FB71     		strb	r3, [r7, #7]
 517:.\Generated_Source\PSoC5/cyfitter_cfg.c **** 		*Tremolo__addrTable[channel] &= (uint8)~Tremolo__maskTable[channel];
 1116              		.loc 1 517 0
 1117 0018 FA79     		ldrb	r2, [r7, #7]	@ zero_extendqisi2
 1118 001a 144B     		ldr	r3, .L48
 1119 001c 53F82230 		ldr	r3, [r3, r2, lsl #2]
 1120 0020 F979     		ldrb	r1, [r7, #7]	@ zero_extendqisi2
 1121 0022 124A     		ldr	r2, .L48
 1122 0024 52F82120 		ldr	r2, [r2, r1, lsl #2]
 1123 0028 1178     		ldrb	r1, [r2]	@ zero_extendqisi2
 1124 002a FA79     		ldrb	r2, [r7, #7]	@ zero_extendqisi2
 1125 002c 1048     		ldr	r0, .L48+4
 1126 002e 825C     		ldrb	r2, [r0, r2]	@ zero_extendqisi2
 1127 0030 D243     		mvns	r2, r2
 1128 0032 D2B2     		uxtb	r2, r2
 1129 0034 0A40     		ands	r2, r2, r1
 1130 0036 D2B2     		uxtb	r2, r2
 1131 0038 1A70     		strb	r2, [r3]
ARM GAS  C:\Users\IEUser\AppData\Local\Temp\ccOs41ig.s 			page 30


 518:.\Generated_Source\PSoC5/cyfitter_cfg.c **** 		channel++;
 1132              		.loc 1 518 0
 1133 003a FB79     		ldrb	r3, [r7, #7]	@ zero_extendqisi2
 1134 003c 0133     		adds	r3, r3, #1
 1135 003e FB71     		strb	r3, [r7, #7]
 519:.\Generated_Source\PSoC5/cyfitter_cfg.c **** 		*Tremolo__addrTable[channel] &= (uint8)~Tremolo__maskTable[channel];
 1136              		.loc 1 519 0
 1137 0040 FA79     		ldrb	r2, [r7, #7]	@ zero_extendqisi2
 1138 0042 0A4B     		ldr	r3, .L48
 1139 0044 53F82230 		ldr	r3, [r3, r2, lsl #2]
 1140 0048 F979     		ldrb	r1, [r7, #7]	@ zero_extendqisi2
 1141 004a 084A     		ldr	r2, .L48
 1142 004c 52F82120 		ldr	r2, [r2, r1, lsl #2]
 1143 0050 1178     		ldrb	r1, [r2]	@ zero_extendqisi2
 1144 0052 FA79     		ldrb	r2, [r7, #7]	@ zero_extendqisi2
 1145 0054 0648     		ldr	r0, .L48+4
 1146 0056 825C     		ldrb	r2, [r0, r2]	@ zero_extendqisi2
 1147 0058 D243     		mvns	r2, r2
 1148 005a D2B2     		uxtb	r2, r2
 1149 005c 0A40     		ands	r2, r2, r1
 1150 005e D2B2     		uxtb	r2, r2
 1151 0060 1A70     		strb	r2, [r3]
 1152              	.L46:
 520:.\Generated_Source\PSoC5/cyfitter_cfg.c **** 	}
 521:.\Generated_Source\PSoC5/cyfitter_cfg.c **** }
 1153              		.loc 1 521 0
 1154 0062 0C37     		adds	r7, r7, #12
 1155 0064 BD46     		mov	sp, r7
 1156              		@ sp needed
 1157 0066 5DF8047B 		ldr	r7, [sp], #4
 1158 006a 7047     		bx	lr
 1159              	.L49:
 1160              		.align	2
 1161              	.L48:
 1162 006c 00000000 		.word	Tremolo__addrTable
 1163 0070 00000000 		.word	Tremolo__maskTable
 1164              		.cfi_endproc
 1165              	.LFE13:
 1166              		.size	Tremolo_Unset, .-Tremolo_Unset
 1167              		.section	.text.cyfitter_cfg,"ax",%progbits
 1168              		.align	2
 1169              		.global	cyfitter_cfg
 1170              		.thumb
 1171              		.thumb_func
 1172              		.type	cyfitter_cfg, %function
 1173              	cyfitter_cfg:
 1174              	.LFB14:
 522:.\Generated_Source\PSoC5/cyfitter_cfg.c **** 
 523:.\Generated_Source\PSoC5/cyfitter_cfg.c **** 
 524:.\Generated_Source\PSoC5/cyfitter_cfg.c **** 
 525:.\Generated_Source\PSoC5/cyfitter_cfg.c **** /*******************************************************************************
 526:.\Generated_Source\PSoC5/cyfitter_cfg.c **** * Function Name: cyfitter_cfg
 527:.\Generated_Source\PSoC5/cyfitter_cfg.c **** ********************************************************************************
 528:.\Generated_Source\PSoC5/cyfitter_cfg.c **** * Summary:
 529:.\Generated_Source\PSoC5/cyfitter_cfg.c **** *  This function is called by the start-up code for the selected device. It
 530:.\Generated_Source\PSoC5/cyfitter_cfg.c **** *  performs all of the necessary device configuration based on the design
 531:.\Generated_Source\PSoC5/cyfitter_cfg.c **** *  settings.  This includes settings from the Design Wide Resources (DWR) such
ARM GAS  C:\Users\IEUser\AppData\Local\Temp\ccOs41ig.s 			page 31


 532:.\Generated_Source\PSoC5/cyfitter_cfg.c **** *  as Clocks and Pins as well as any component configuration that is necessary.
 533:.\Generated_Source\PSoC5/cyfitter_cfg.c **** *
 534:.\Generated_Source\PSoC5/cyfitter_cfg.c **** * Parameters:  
 535:.\Generated_Source\PSoC5/cyfitter_cfg.c **** *   void
 536:.\Generated_Source\PSoC5/cyfitter_cfg.c **** *
 537:.\Generated_Source\PSoC5/cyfitter_cfg.c **** * Return:
 538:.\Generated_Source\PSoC5/cyfitter_cfg.c **** *   void
 539:.\Generated_Source\PSoC5/cyfitter_cfg.c **** *
 540:.\Generated_Source\PSoC5/cyfitter_cfg.c **** *******************************************************************************/
 541:.\Generated_Source\PSoC5/cyfitter_cfg.c **** 
 542:.\Generated_Source\PSoC5/cyfitter_cfg.c **** void cyfitter_cfg(void)
 543:.\Generated_Source\PSoC5/cyfitter_cfg.c **** {
 1175              		.loc 1 543 0
 1176              		.cfi_startproc
 1177              		@ args = 0, pretend = 0, frame = 8
 1178              		@ frame_needed = 1, uses_anonymous_args = 0
 1179 0000 80B5     		push	{r7, lr}
 1180              		.cfi_def_cfa_offset 8
 1181              		.cfi_offset 7, -8
 1182              		.cfi_offset 14, -4
 1183 0002 82B0     		sub	sp, sp, #8
 1184              		.cfi_def_cfa_offset 16
 1185 0004 00AF     		add	r7, sp, #0
 1186              		.cfi_def_cfa_register 7
 544:.\Generated_Source\PSoC5/cyfitter_cfg.c **** #ifdef CYGlobalIntDisable
 545:.\Generated_Source\PSoC5/cyfitter_cfg.c **** 	/* Disable interrupts by default. Let user enable if/when they want. */
 546:.\Generated_Source\PSoC5/cyfitter_cfg.c **** 	CYGlobalIntDisable
 1187              		.loc 1 546 0
 1188              	@ 546 ".\Generated_Source\PSoC5\cyfitter_cfg.c" 1
 1189 0006 72B6     		CPSID   i
 1190              	@ 0 "" 2
 547:.\Generated_Source\PSoC5/cyfitter_cfg.c **** #endif
 548:.\Generated_Source\PSoC5/cyfitter_cfg.c **** 
 549:.\Generated_Source\PSoC5/cyfitter_cfg.c **** 	/* Enable/Disable Debug functionality based on settings from System DWR */
 550:.\Generated_Source\PSoC5/cyfitter_cfg.c **** 	CY_SET_XTND_REG8((void CYFAR *)CYREG_MLOGIC_DEBUG, (CY_GET_XTND_REG8((void CYFAR *)CYREG_MLOGIC_DE
 1191              		.loc 1 550 0
 1192              		.thumb
 1193 0008 4E4B     		ldr	r3, .L53
 1194 000a 4E4A     		ldr	r2, .L53
 1195 000c 1278     		ldrb	r2, [r2]
 1196 000e D2B2     		uxtb	r2, r2
 1197 0010 42F00402 		orr	r2, r2, #4
 1198 0014 D2B2     		uxtb	r2, r2
 1199 0016 1A70     		strb	r2, [r3]
 1200              	.LBB3:
 551:.\Generated_Source\PSoC5/cyfitter_cfg.c **** 
 552:.\Generated_Source\PSoC5/cyfitter_cfg.c **** 	{
 553:.\Generated_Source\PSoC5/cyfitter_cfg.c **** 
 554:.\Generated_Source\PSoC5/cyfitter_cfg.c **** 		CYPACKED typedef struct {
 555:.\Generated_Source\PSoC5/cyfitter_cfg.c **** 			void CYFAR *address;
 556:.\Generated_Source\PSoC5/cyfitter_cfg.c **** 			uint16 size;
 557:.\Generated_Source\PSoC5/cyfitter_cfg.c **** 		} CYPACKED_ATTR cfg_memset_t;
 558:.\Generated_Source\PSoC5/cyfitter_cfg.c **** 
 559:.\Generated_Source\PSoC5/cyfitter_cfg.c **** 		static const cfg_memset_t CYCODE cfg_memset_list [] = {
 560:.\Generated_Source\PSoC5/cyfitter_cfg.c **** 			/* address, size */
 561:.\Generated_Source\PSoC5/cyfitter_cfg.c **** 			{(void CYFAR *)(CYREG_PRT1_DR), 32u},
 562:.\Generated_Source\PSoC5/cyfitter_cfg.c **** 			{(void CYFAR *)(CYREG_PRT6_DR), 16u},
ARM GAS  C:\Users\IEUser\AppData\Local\Temp\ccOs41ig.s 			page 32


 563:.\Generated_Source\PSoC5/cyfitter_cfg.c **** 			{(void CYFAR *)(CYREG_PRT12_DR), 16u},
 564:.\Generated_Source\PSoC5/cyfitter_cfg.c **** 			{(void CYFAR *)(CYDEV_UCFG_B0_P0_U0_BASE), 4096u},
 565:.\Generated_Source\PSoC5/cyfitter_cfg.c **** 			{(void CYFAR *)(CYDEV_UCFG_B1_P2_U0_BASE), 2048u},
 566:.\Generated_Source\PSoC5/cyfitter_cfg.c **** 			{(void CYFAR *)(CYDEV_UCFG_DSI0_BASE), 2560u},
 567:.\Generated_Source\PSoC5/cyfitter_cfg.c **** 			{(void CYFAR *)(CYDEV_UCFG_DSI12_BASE), 512u},
 568:.\Generated_Source\PSoC5/cyfitter_cfg.c **** 			{(void CYFAR *)(CYREG_BCTL0_MDCLK_EN), 32u},
 569:.\Generated_Source\PSoC5/cyfitter_cfg.c **** 		};
 570:.\Generated_Source\PSoC5/cyfitter_cfg.c **** 
 571:.\Generated_Source\PSoC5/cyfitter_cfg.c **** 		uint8 CYDATA i;
 572:.\Generated_Source\PSoC5/cyfitter_cfg.c **** 
 573:.\Generated_Source\PSoC5/cyfitter_cfg.c **** 		/* Zero out critical memory blocks before beginning configuration */
 574:.\Generated_Source\PSoC5/cyfitter_cfg.c **** 		for (i = 0u; i < (sizeof(cfg_memset_list)/sizeof(cfg_memset_list[0])); i++)
 1201              		.loc 1 574 0
 1202 0018 0023     		movs	r3, #0
 1203 001a FB71     		strb	r3, [r7, #7]
 1204 001c 13E0     		b	.L51
 1205              	.L52:
 1206              	.LBB4:
 575:.\Generated_Source\PSoC5/cyfitter_cfg.c **** 		{
 576:.\Generated_Source\PSoC5/cyfitter_cfg.c **** 			const cfg_memset_t CYCODE * CYDATA ms = &cfg_memset_list[i];
 1207              		.loc 1 576 0 discriminator 2
 1208 001e FA79     		ldrb	r2, [r7, #7]	@ zero_extendqisi2
 1209 0020 1346     		mov	r3, r2
 1210 0022 5B00     		lsls	r3, r3, #1
 1211 0024 1344     		add	r3, r3, r2
 1212 0026 5B00     		lsls	r3, r3, #1
 1213 0028 474A     		ldr	r2, .L53+4
 1214 002a 1344     		add	r3, r3, r2
 1215 002c 3B60     		str	r3, [r7]
 577:.\Generated_Source\PSoC5/cyfitter_cfg.c **** 			CYMEMZERO(ms->address, (size_t)(uint32)(ms->size));
 1216              		.loc 1 577 0 discriminator 2
 1217 002e 3B68     		ldr	r3, [r7]
 1218 0030 1A68     		ldr	r2, [r3]	@ unaligned
 1219 0032 3B68     		ldr	r3, [r7]
 1220 0034 9B88     		ldrh	r3, [r3, #4]	@ unaligned
 1221 0036 9BB2     		uxth	r3, r3
 1222 0038 1046     		mov	r0, r2
 1223 003a 1946     		mov	r1, r3
 1224 003c FFF7FEFF 		bl	CYMEMZERO
 1225              	.LBE4:
 574:.\Generated_Source\PSoC5/cyfitter_cfg.c **** 		for (i = 0u; i < (sizeof(cfg_memset_list)/sizeof(cfg_memset_list[0])); i++)
 1226              		.loc 1 574 0 discriminator 2
 1227 0040 FB79     		ldrb	r3, [r7, #7]	@ zero_extendqisi2
 1228 0042 0133     		adds	r3, r3, #1
 1229 0044 FB71     		strb	r3, [r7, #7]
 1230              	.L51:
 574:.\Generated_Source\PSoC5/cyfitter_cfg.c **** 		for (i = 0u; i < (sizeof(cfg_memset_list)/sizeof(cfg_memset_list[0])); i++)
 1231              		.loc 1 574 0 is_stmt 0 discriminator 1
 1232 0046 FB79     		ldrb	r3, [r7, #7]	@ zero_extendqisi2
 1233 0048 072B     		cmp	r3, #7
 1234 004a E8D9     		bls	.L52
 578:.\Generated_Source\PSoC5/cyfitter_cfg.c **** 		}
 579:.\Generated_Source\PSoC5/cyfitter_cfg.c **** 
 580:.\Generated_Source\PSoC5/cyfitter_cfg.c **** 		cfg_write_bytes32(cy_cfg_addr_table, cy_cfg_data_table);
 1235              		.loc 1 580 0 is_stmt 1
 1236 004c 4FF09040 		mov	r0, #1207959552
 1237 0050 3E49     		ldr	r1, .L53+8
ARM GAS  C:\Users\IEUser\AppData\Local\Temp\ccOs41ig.s 			page 33


 1238 0052 FFF7FEFF 		bl	cfg_write_bytes32
 581:.\Generated_Source\PSoC5/cyfitter_cfg.c **** 
 582:.\Generated_Source\PSoC5/cyfitter_cfg.c **** 		/* Perform normal device configuration. Order is not critical for these items. */
 583:.\Generated_Source\PSoC5/cyfitter_cfg.c **** 		CYMEMZERO((void CYFAR *)(CYREG_PHUB_CFGMEM0_CFG0), 4u);
 1239              		.loc 1 583 0
 1240 0056 3E48     		ldr	r0, .L53+12
 1241 0058 0421     		movs	r1, #4
 1242 005a FFF7FEFF 		bl	CYMEMZERO
 584:.\Generated_Source\PSoC5/cyfitter_cfg.c **** 		CYMEMZERO((void CYFAR *)(CYREG_PHUB_CFGMEM1_CFG0), 4u);
 1243              		.loc 1 584 0
 1244 005e 3D48     		ldr	r0, .L53+16
 1245 0060 0421     		movs	r1, #4
 1246 0062 FFF7FEFF 		bl	CYMEMZERO
 585:.\Generated_Source\PSoC5/cyfitter_cfg.c **** 		CYMEMZERO((void CYFAR *)(CYREG_PHUB_CFGMEM2_CFG0), 4u);
 1247              		.loc 1 585 0
 1248 0066 3C48     		ldr	r0, .L53+20
 1249 0068 0421     		movs	r1, #4
 1250 006a FFF7FEFF 		bl	CYMEMZERO
 586:.\Generated_Source\PSoC5/cyfitter_cfg.c **** 		CYMEMZERO((void CYFAR *)(CYREG_PHUB_CFGMEM3_CFG0), 4u);
 1251              		.loc 1 586 0
 1252 006e 3B48     		ldr	r0, .L53+24
 1253 0070 0421     		movs	r1, #4
 1254 0072 FFF7FEFF 		bl	CYMEMZERO
 587:.\Generated_Source\PSoC5/cyfitter_cfg.c **** 		CYMEMZERO((void CYFAR *)(CYREG_PHUB_CFGMEM4_CFG0), 4u);
 1255              		.loc 1 587 0
 1256 0076 3A48     		ldr	r0, .L53+28
 1257 0078 0421     		movs	r1, #4
 1258 007a FFF7FEFF 		bl	CYMEMZERO
 588:.\Generated_Source\PSoC5/cyfitter_cfg.c **** 		CYMEMZERO((void CYFAR *)(CYREG_PHUB_CFGMEM5_CFG0), 4u);
 1259              		.loc 1 588 0
 1260 007e 3948     		ldr	r0, .L53+32
 1261 0080 0421     		movs	r1, #4
 1262 0082 FFF7FEFF 		bl	CYMEMZERO
 589:.\Generated_Source\PSoC5/cyfitter_cfg.c **** 		CYMEMZERO((void CYFAR *)(CYREG_PHUB_CFGMEM6_CFG0), 4u);
 1263              		.loc 1 589 0
 1264 0086 3848     		ldr	r0, .L53+36
 1265 0088 0421     		movs	r1, #4
 1266 008a FFF7FEFF 		bl	CYMEMZERO
 590:.\Generated_Source\PSoC5/cyfitter_cfg.c **** 		CYMEMZERO((void CYFAR *)(CYREG_PHUB_CFGMEM7_CFG0), 4u);
 1267              		.loc 1 590 0
 1268 008e 3748     		ldr	r0, .L53+40
 1269 0090 0421     		movs	r1, #4
 1270 0092 FFF7FEFF 		bl	CYMEMZERO
 591:.\Generated_Source\PSoC5/cyfitter_cfg.c **** 
 592:.\Generated_Source\PSoC5/cyfitter_cfg.c **** 		/* Enable digital routing */
 593:.\Generated_Source\PSoC5/cyfitter_cfg.c **** 		CY_SET_XTND_REG8((void CYFAR *)CYREG_BCTL0_BANK_CTL, CY_GET_XTND_REG8((void CYFAR *)CYREG_BCTL0_B
 1271              		.loc 1 593 0
 1272 0096 364B     		ldr	r3, .L53+44
 1273 0098 354A     		ldr	r2, .L53+44
 1274 009a 1278     		ldrb	r2, [r2]
 1275 009c D2B2     		uxtb	r2, r2
 1276 009e 42F00202 		orr	r2, r2, #2
 1277 00a2 D2B2     		uxtb	r2, r2
 1278 00a4 1A70     		strb	r2, [r3]
 594:.\Generated_Source\PSoC5/cyfitter_cfg.c **** 		CY_SET_XTND_REG8((void CYFAR *)CYREG_BCTL1_BANK_CTL, CY_GET_XTND_REG8((void CYFAR *)CYREG_BCTL1_B
 1279              		.loc 1 594 0
 1280 00a6 334B     		ldr	r3, .L53+48
ARM GAS  C:\Users\IEUser\AppData\Local\Temp\ccOs41ig.s 			page 34


 1281 00a8 324A     		ldr	r2, .L53+48
 1282 00aa 1278     		ldrb	r2, [r2]
 1283 00ac D2B2     		uxtb	r2, r2
 1284 00ae 42F00202 		orr	r2, r2, #2
 1285 00b2 D2B2     		uxtb	r2, r2
 1286 00b4 1A70     		strb	r2, [r3]
 595:.\Generated_Source\PSoC5/cyfitter_cfg.c **** 
 596:.\Generated_Source\PSoC5/cyfitter_cfg.c **** 		/* Enable UDB array */
 597:.\Generated_Source\PSoC5/cyfitter_cfg.c **** 		CY_SET_XTND_REG8((void CYFAR *)CYREG_PM_ACT_CFG0, CY_GET_XTND_REG8((void CYFAR *)CYREG_PM_ACT_CFG
 1287              		.loc 1 597 0
 1288 00b6 304B     		ldr	r3, .L53+52
 1289 00b8 2F4A     		ldr	r2, .L53+52
 1290 00ba 1278     		ldrb	r2, [r2]
 1291 00bc D2B2     		uxtb	r2, r2
 1292 00be 42F04002 		orr	r2, r2, #64
 1293 00c2 D2B2     		uxtb	r2, r2
 1294 00c4 1A70     		strb	r2, [r3]
 598:.\Generated_Source\PSoC5/cyfitter_cfg.c **** 		CY_SET_XTND_REG8((void CYFAR *)CYREG_PM_AVAIL_CR2, CY_GET_XTND_REG8((void CYFAR *)CYREG_PM_AVAIL_
 1295              		.loc 1 598 0
 1296 00c6 2D4B     		ldr	r3, .L53+56
 1297 00c8 2C4A     		ldr	r2, .L53+56
 1298 00ca 1278     		ldrb	r2, [r2]
 1299 00cc D2B2     		uxtb	r2, r2
 1300 00ce 42F01002 		orr	r2, r2, #16
 1301 00d2 D2B2     		uxtb	r2, r2
 1302 00d4 1A70     		strb	r2, [r3]
 1303              	.LBE3:
 599:.\Generated_Source\PSoC5/cyfitter_cfg.c **** 	}
 600:.\Generated_Source\PSoC5/cyfitter_cfg.c **** 
 601:.\Generated_Source\PSoC5/cyfitter_cfg.c **** 
 602:.\Generated_Source\PSoC5/cyfitter_cfg.c **** 	/* Perform second pass device configuration. These items must be configured in specific order afte
 603:.\Generated_Source\PSoC5/cyfitter_cfg.c **** 	CYCONFIGCPY((void CYFAR *)(CYREG_PRT0_DM0), (const void CYFAR *)(BS_IOPINS0_0_VAL), 8u);
 1304              		.loc 1 603 0
 1305 00d6 2A48     		ldr	r0, .L53+60
 1306 00d8 2A49     		ldr	r1, .L53+64
 1307 00da 0822     		movs	r2, #8
 1308 00dc FFF7FEFF 		bl	CYCONFIGCPY
 604:.\Generated_Source\PSoC5/cyfitter_cfg.c **** 	CYCONFIGCPY((void CYFAR *)(CYREG_PRT15_DM0), (const void CYFAR *)(BS_IOPINS0_8_VAL), 8u);
 1309              		.loc 1 604 0
 1310 00e0 2948     		ldr	r0, .L53+68
 1311 00e2 2A49     		ldr	r1, .L53+72
 1312 00e4 0822     		movs	r2, #8
 1313 00e6 FFF7FEFF 		bl	CYCONFIGCPY
 605:.\Generated_Source\PSoC5/cyfitter_cfg.c **** 	CYCONFIGCPY((void CYFAR *)(CYREG_PRT3_DM0), (const void CYFAR *)(BS_IOPINS0_3_VAL), 8u);
 1314              		.loc 1 605 0
 1315 00ea 2948     		ldr	r0, .L53+76
 1316 00ec 2949     		ldr	r1, .L53+80
 1317 00ee 0822     		movs	r2, #8
 1318 00f0 FFF7FEFF 		bl	CYCONFIGCPY
 606:.\Generated_Source\PSoC5/cyfitter_cfg.c **** 	CYCONFIGCPY((void CYFAR *)(CYREG_PRT4_DM0), (const void CYFAR *)(BS_IOPINS0_4_VAL), 8u);
 1319              		.loc 1 606 0
 1320 00f4 2848     		ldr	r0, .L53+84
 1321 00f6 2949     		ldr	r1, .L53+88
 1322 00f8 0822     		movs	r2, #8
 1323 00fa FFF7FEFF 		bl	CYCONFIGCPY
 607:.\Generated_Source\PSoC5/cyfitter_cfg.c **** 	CYCONFIGCPY((void CYFAR *)(CYREG_PRT5_DM0), (const void CYFAR *)(BS_IOPINS0_5_VAL), 8u);
 1324              		.loc 1 607 0
ARM GAS  C:\Users\IEUser\AppData\Local\Temp\ccOs41ig.s 			page 35


 1325 00fe 2848     		ldr	r0, .L53+92
 1326 0100 2849     		ldr	r1, .L53+96
 1327 0102 0822     		movs	r2, #8
 1328 0104 FFF7FEFF 		bl	CYCONFIGCPY
 608:.\Generated_Source\PSoC5/cyfitter_cfg.c **** 	/* Switch Boost to the precision bandgap reference from its internal reference */
 609:.\Generated_Source\PSoC5/cyfitter_cfg.c **** 	CY_SET_REG8((void CYXDATA *)CYREG_BOOST_CR2, (CY_GET_REG8((void CYXDATA *)CYREG_BOOST_CR2) | 0x08u
 1329              		.loc 1 609 0
 1330 0108 274B     		ldr	r3, .L53+100
 1331 010a 274A     		ldr	r2, .L53+100
 1332 010c 1278     		ldrb	r2, [r2]
 1333 010e D2B2     		uxtb	r2, r2
 1334 0110 42F00802 		orr	r2, r2, #8
 1335 0114 D2B2     		uxtb	r2, r2
 1336 0116 1A70     		strb	r2, [r3]
 610:.\Generated_Source\PSoC5/cyfitter_cfg.c **** 
 611:.\Generated_Source\PSoC5/cyfitter_cfg.c **** 	/* Set Flash Cycles based on max possible frequency in case a glitch occurs during ClockSetup(). *
 612:.\Generated_Source\PSoC5/cyfitter_cfg.c **** 	CY_SET_XTND_REG8((void CYFAR *)(CYREG_CACHE_CC_CTL), (((CYDEV_INSTRUCT_CACHE_ENABLED) != 0) ? 0x61
 1337              		.loc 1 612 0
 1338 0118 244B     		ldr	r3, .L53+104
 1339 011a 6122     		movs	r2, #97
 1340 011c 1A70     		strb	r2, [r3]
 613:.\Generated_Source\PSoC5/cyfitter_cfg.c **** 	/* Setup clocks based on selections from Clock DWR */
 614:.\Generated_Source\PSoC5/cyfitter_cfg.c **** 	ClockSetup();
 1341              		.loc 1 614 0
 1342 011e FFF7FEFF 		bl	ClockSetup
 615:.\Generated_Source\PSoC5/cyfitter_cfg.c **** 	/* Set Flash Cycles based on newly configured 24.00MHz Bus Clock. */
 616:.\Generated_Source\PSoC5/cyfitter_cfg.c **** 	CY_SET_XTND_REG8((void CYFAR *)(CYREG_CACHE_CC_CTL), (((CYDEV_INSTRUCT_CACHE_ENABLED) != 0) ? 0x81
 1343              		.loc 1 616 0
 1344 0122 224B     		ldr	r3, .L53+104
 1345 0124 8122     		movs	r2, #129
 1346 0126 1A70     		strb	r2, [r3]
 617:.\Generated_Source\PSoC5/cyfitter_cfg.c **** 	CY_SET_XTND_REG8((void CYFAR *)(CYREG_PANTHER_WAITPIPE), 0x01u);
 1347              		.loc 1 617 0
 1348 0128 214B     		ldr	r3, .L53+108
 1349 012a 0122     		movs	r2, #1
 1350 012c 1A70     		strb	r2, [r3]
 618:.\Generated_Source\PSoC5/cyfitter_cfg.c **** 
 619:.\Generated_Source\PSoC5/cyfitter_cfg.c **** 	/* Perform basic analog initialization to defaults */
 620:.\Generated_Source\PSoC5/cyfitter_cfg.c **** 	AnalogSetDefault();
 1351              		.loc 1 620 0
 1352 012e FFF7FEFF 		bl	AnalogSetDefault
 621:.\Generated_Source\PSoC5/cyfitter_cfg.c **** 
 622:.\Generated_Source\PSoC5/cyfitter_cfg.c **** 	/* Configure alternate active mode */
 623:.\Generated_Source\PSoC5/cyfitter_cfg.c **** 	CYCONFIGCPY((void CYFAR *)CYDEV_PM_STBY_BASE, (const void CYFAR *)CYDEV_PM_ACT_BASE, 14u);
 1353              		.loc 1 623 0
 1354 0132 2048     		ldr	r0, .L53+112
 1355 0134 1049     		ldr	r1, .L53+52
 1356 0136 0E22     		movs	r2, #14
 1357 0138 FFF7FEFF 		bl	CYCONFIGCPY
 624:.\Generated_Source\PSoC5/cyfitter_cfg.c **** }
 1358              		.loc 1 624 0
 1359 013c 0837     		adds	r7, r7, #8
 1360 013e BD46     		mov	sp, r7
 1361              		@ sp needed
 1362 0140 80BD     		pop	{r7, pc}
 1363              	.L54:
 1364 0142 00BF     		.align	2
ARM GAS  C:\Users\IEUser\AppData\Local\Temp\ccOs41ig.s 			page 36


 1365              	.L53:
 1366 0144 E8460040 		.word	1073759976
 1367 0148 50000000 		.word	cfg_memset_list.4923
 1368 014c 70000048 		.word	1207959664
 1369 0150 00760040 		.word	1073772032
 1370 0154 08760040 		.word	1073772040
 1371 0158 10760040 		.word	1073772048
 1372 015c 18760040 		.word	1073772056
 1373 0160 20760040 		.word	1073772064
 1374 0164 28760040 		.word	1073772072
 1375 0168 30760040 		.word	1073772080
 1376 016c 38760040 		.word	1073772088
 1377 0170 03500140 		.word	1073827843
 1378 0174 13500140 		.word	1073827859
 1379 0178 A0430040 		.word	1073759136
 1380 017c C2430040 		.word	1073759170
 1381 0180 02510040 		.word	1073762562
 1382 0184 94020048 		.word	1207960212
 1383 0188 F2510040 		.word	1073762802
 1384 018c 9C020048 		.word	1207960220
 1385 0190 32510040 		.word	1073762610
 1386 0194 A4020048 		.word	1207960228
 1387 0198 42510040 		.word	1073762626
 1388 019c AC020048 		.word	1207960236
 1389 01a0 52510040 		.word	1073762642
 1390 01a4 B4020048 		.word	1207960244
 1391 01a8 22430040 		.word	1073759010
 1392 01ac 00480040 		.word	1073760256
 1393 01b0 04000840 		.word	1074266116
 1394 01b4 B0430040 		.word	1073759152
 1395              		.cfi_endproc
 1396              	.LFE14:
 1397              		.size	cyfitter_cfg, .-cyfitter_cfg
 1398              		.section	.rodata
 1399              		.align	2
 1400              		.type	cfg_memset_list.4923, %object
 1401              		.size	cfg_memset_list.4923, 48
 1402              	cfg_memset_list.4923:
 1403 0050 10510040 		.word	1073762576
 1404 0054 2000     		.short	32
 1405 0056 60510040 		.4byte	1073762656
 1406 005a 1000     		.short	16
 1407 005c C0510040 		.word	1073762752
 1408 0060 1000     		.short	16
 1409 0062 00000140 		.4byte	1073807360
 1410 0066 0010     		.short	4096
 1411 0068 00140140 		.word	1073812480
 1412 006c 0008     		.short	2048
 1413 006e 00400140 		.4byte	1073823744
 1414 0072 000A     		.short	2560
 1415 0074 004C0140 		.word	1073826816
 1416 0078 0002     		.short	512
 1417 007a 00500140 		.4byte	1073827840
 1418 007e 2000     		.short	32
 1419              		.text
 1420              	.Letext0:
 1421              		.file 2 "c:\\program files\\cypress\\psoc creator\\3.2\\psoc creator\\import\\gnu\\arm\\4.8.4\\lib
ARM GAS  C:\Users\IEUser\AppData\Local\Temp\ccOs41ig.s 			page 37


 1422              		.file 3 ".\\Generated_Source\\PSoC5\\cytypes.h"