ARM GAS  C:\Users\IEUser\AppData\Local\Temp\ccQwYCSj.s 			page 1


   1              		.syntax unified
   2              		.cpu cortex-m3
   3              		.fpu softvfp
   4              		.eabi_attribute 20, 1
   5              		.eabi_attribute 21, 1
   6              		.eabi_attribute 23, 3
   7              		.eabi_attribute 24, 1
   8              		.eabi_attribute 25, 1
   9              		.eabi_attribute 26, 1
  10              		.eabi_attribute 30, 6
  11              		.eabi_attribute 34, 1
  12              		.eabi_attribute 18, 4
  13              		.thumb
  14              		.file	"main.c"
  15              		.text
  16              	.Ltext0:
  17              		.cfi_sections	.debug_frame
  18              		.section	.text.main,"ax",%progbits
  19              		.align	2
  20              		.global	main
  21              		.thumb
  22              		.thumb_func
  23              		.type	main, %function
  24              	main:
  25              	.LFB56:
  26              		.file 1 ".\\main.c"
   1:.\main.c      **** /* ========================================
   2:.\main.c      ****  *
   3:.\main.c      ****  * Copyright YOUR COMPANY, THE YEAR
   4:.\main.c      ****  * All Rights Reserved
   5:.\main.c      ****  * UNPUBLISHED, LICENSED SOFTWARE.
   6:.\main.c      ****  *
   7:.\main.c      ****  * CONFIDENTIAL AND PROPRIETARY INFORMATION
   8:.\main.c      ****  * WHICH IS THE PROPERTY OF your company.
   9:.\main.c      ****  *
  10:.\main.c      ****  * ========================================
  11:.\main.c      **** */
  12:.\main.c      **** #include <project.h>
  13:.\main.c      **** #include <stdbool.h>
  14:.\main.c      **** 
  15:.\main.c      **** int main()
  16:.\main.c      **** {
  27              		.loc 1 16 0
  28              		.cfi_startproc
  29              		@ args = 0, pretend = 0, frame = 8
  30              		@ frame_needed = 1, uses_anonymous_args = 0
  31 0000 80B5     		push	{r7, lr}
  32              		.cfi_def_cfa_offset 8
  33              		.cfi_offset 7, -8
  34              		.cfi_offset 14, -4
  35 0002 82B0     		sub	sp, sp, #8
  36              		.cfi_def_cfa_offset 16
  37 0004 00AF     		add	r7, sp, #0
  38              		.cfi_def_cfa_register 7
  17:.\main.c      ****     /* Place your initialization/startup code here (e.g. MyInst_Start()) */
  18:.\main.c      **** 
  19:.\main.c      ****     A_B_Start();
ARM GAS  C:\Users\IEUser\AppData\Local\Temp\ccQwYCSj.s 			page 2


  39              		.loc 1 19 0
  40 0006 FFF7FEFF 		bl	A_B_Start
  20:.\main.c      ****     C_D_Start();
  41              		.loc 1 20 0
  42 000a FFF7FEFF 		bl	C_D_Start
  21:.\main.c      ****     E_F_Start();
  43              		.loc 1 21 0
  44 000e FFF7FEFF 		bl	E_F_Start
  22:.\main.c      ****     G_A_Start();
  45              		.loc 1 22 0
  46 0012 FFF7FEFF 		bl	G_A_Start
  23:.\main.c      ****     OutMux_Start();
  47              		.loc 1 23 0
  48 0016 FFF7FEFF 		bl	OutMux_Start
  24:.\main.c      ****     Pot_Vals_Start();
  49              		.loc 1 24 0
  50 001a FFF7FEFF 		bl	Pot_Vals_Start
  25:.\main.c      ****     ADC_Start();
  51              		.loc 1 25 0
  52 001e FFF7FEFF 		bl	ADC_Start
  26:.\main.c      ****     Tremolo_Start();
  53              		.loc 1 26 0
  54 0022 FFF7FEFF 		bl	Tremolo_Start
  27:.\main.c      ****     Amp_Start();
  55              		.loc 1 27 0
  56 0026 FFF7FEFF 		bl	Amp_Start
  28:.\main.c      ****     
  29:.\main.c      ****     uint8 InputReg;
  30:.\main.c      ****     int16 Pot_A_val;
  31:.\main.c      ****     int16 Pot_B_val;
  32:.\main.c      ****     
  33:.\main.c      ****     Amp_SetGain(Amp_GAIN_01);
  57              		.loc 1 33 0
  58 002a 0020     		movs	r0, #0
  59 002c FFF7FEFF 		bl	Amp_SetGain
  60              	.L23:
  34:.\main.c      ****     
  35:.\main.c      ****     /* CyGlobalIntEnable; */ /* Uncomment this line to enable global interrupts. */
  36:.\main.c      ****     for(;;)
  37:.\main.c      ****     {
  38:.\main.c      ****         
  39:.\main.c      **** 
  40:.\main.c      ****         Pot_Vals_Select(0);
  61              		.loc 1 40 0
  62 0030 0020     		movs	r0, #0
  63 0032 FFF7FEFF 		bl	Pot_Vals_Select
  41:.\main.c      ****         CyDelay(25);
  64              		.loc 1 41 0
  65 0036 1920     		movs	r0, #25
  66 0038 FFF7FEFF 		bl	CyDelay
  42:.\main.c      ****         ADC_StartConvert();
  67              		.loc 1 42 0
  68 003c FFF7FEFF 		bl	ADC_StartConvert
  43:.\main.c      ****         ADC_IsEndConversion(ADC_WAIT_FOR_RESULT);
  69              		.loc 1 43 0
  70 0040 0020     		movs	r0, #0
  71 0042 FFF7FEFF 		bl	ADC_IsEndConversion
ARM GAS  C:\Users\IEUser\AppData\Local\Temp\ccQwYCSj.s 			page 3


  44:.\main.c      ****         Pot_A_val = ADC_GetResult16();
  72              		.loc 1 44 0
  73 0046 FFF7FEFF 		bl	ADC_GetResult16
  74 004a 0346     		mov	r3, r0
  75 004c FB80     		strh	r3, [r7, #6]	@ movhi
  45:.\main.c      **** 
  46:.\main.c      **** 
  47:.\main.c      ****         
  48:.\main.c      ****         Pot_Vals_Select(1);
  76              		.loc 1 48 0
  77 004e 0120     		movs	r0, #1
  78 0050 FFF7FEFF 		bl	Pot_Vals_Select
  49:.\main.c      ****         CyDelay(25);
  79              		.loc 1 49 0
  80 0054 1920     		movs	r0, #25
  81 0056 FFF7FEFF 		bl	CyDelay
  50:.\main.c      ****         ADC_StartConvert();
  82              		.loc 1 50 0
  83 005a FFF7FEFF 		bl	ADC_StartConvert
  51:.\main.c      ****         ADC_IsEndConversion(ADC_WAIT_FOR_RESULT);
  84              		.loc 1 51 0
  85 005e 0020     		movs	r0, #0
  86 0060 FFF7FEFF 		bl	ADC_IsEndConversion
  52:.\main.c      ****         Pot_B_val = ADC_GetResult16();
  87              		.loc 1 52 0
  88 0064 FFF7FEFF 		bl	ADC_GetResult16
  89 0068 0346     		mov	r3, r0
  90 006a BB80     		strh	r3, [r7, #4]	@ movhi
  53:.\main.c      ****         
  54:.\main.c      ****         
  55:.\main.c      ****         InputReg = Status_Reg_Read();
  91              		.loc 1 55 0
  92 006c FFF7FEFF 		bl	Status_Reg_Read
  93 0070 0346     		mov	r3, r0
  94 0072 FB70     		strb	r3, [r7, #3]
  56:.\main.c      ****         
  57:.\main.c      ****         
  58:.\main.c      ****         switch(InputReg){
  95              		.loc 1 58 0
  96 0074 FB78     		ldrb	r3, [r7, #3]	@ zero_extendqisi2
  97 0076 082B     		cmp	r3, #8
  98 0078 29D0     		beq	.L3
  99 007a 082B     		cmp	r3, #8
 100 007c 06DC     		bgt	.L4
 101 007e 022B     		cmp	r3, #2
 102 0080 17D0     		beq	.L5
 103 0082 042B     		cmp	r3, #4
 104 0084 1CD0     		beq	.L6
 105 0086 012B     		cmp	r3, #1
 106 0088 0CD0     		beq	.L7
 107 008a 43E0     		b	.L2
 108              	.L4:
 109 008c 202B     		cmp	r3, #32
 110 008e 2CD0     		beq	.L8
 111 0090 202B     		cmp	r3, #32
 112 0092 02DC     		bgt	.L9
 113 0094 102B     		cmp	r3, #16
ARM GAS  C:\Users\IEUser\AppData\Local\Temp\ccQwYCSj.s 			page 4


 114 0096 21D0     		beq	.L10
 115 0098 3CE0     		b	.L2
 116              	.L9:
 117 009a 402B     		cmp	r3, #64
 118 009c 2CD0     		beq	.L11
 119 009e 802B     		cmp	r3, #128
 120 00a0 31D0     		beq	.L12
 121 00a2 37E0     		b	.L2
 122              	.L7:
  59:.\main.c      ****             
  60:.\main.c      ****          case 1:
  61:.\main.c      ****             
  62:.\main.c      ****             Control_Reg_Write(0); //0000
 123              		.loc 1 62 0
 124 00a4 0020     		movs	r0, #0
 125 00a6 FFF7FEFF 		bl	Control_Reg_Write
  63:.\main.c      ****             OutMux_Select(0);    
 126              		.loc 1 63 0
 127 00aa 0020     		movs	r0, #0
 128 00ac FFF7FEFF 		bl	OutMux_FastSelect
  64:.\main.c      ****             
  65:.\main.c      ****          break;
 129              		.loc 1 65 0
 130 00b0 33E0     		b	.L13
 131              	.L5:
  66:.\main.c      ****             
  67:.\main.c      ****          case 2:
  68:.\main.c      ****             
  69:.\main.c      ****             Control_Reg_Write(1); //0001
 132              		.loc 1 69 0
 133 00b2 0120     		movs	r0, #1
 134 00b4 FFF7FEFF 		bl	Control_Reg_Write
  70:.\main.c      ****             OutMux_Select(0);   
 135              		.loc 1 70 0
 136 00b8 0020     		movs	r0, #0
 137 00ba FFF7FEFF 		bl	OutMux_FastSelect
  71:.\main.c      ****             
  72:.\main.c      ****          break;
 138              		.loc 1 72 0
 139 00be 2CE0     		b	.L13
 140              	.L6:
  73:.\main.c      ****             
  74:.\main.c      ****          case 4:
  75:.\main.c      ****             
  76:.\main.c      ****             Control_Reg_Write(1); //0001
 141              		.loc 1 76 0
 142 00c0 0120     		movs	r0, #1
 143 00c2 FFF7FEFF 		bl	Control_Reg_Write
  77:.\main.c      ****             OutMux_Select(1);            
 144              		.loc 1 77 0
 145 00c6 0120     		movs	r0, #1
 146 00c8 FFF7FEFF 		bl	OutMux_FastSelect
  78:.\main.c      ****             
  79:.\main.c      ****          break;
 147              		.loc 1 79 0
 148 00cc 25E0     		b	.L13
 149              	.L3:
ARM GAS  C:\Users\IEUser\AppData\Local\Temp\ccQwYCSj.s 			page 5


  80:.\main.c      ****             
  81:.\main.c      ****          case 8:
  82:.\main.c      ****             
  83:.\main.c      ****             Control_Reg_Write(2); //0010
 150              		.loc 1 83 0
 151 00ce 0220     		movs	r0, #2
 152 00d0 FFF7FEFF 		bl	Control_Reg_Write
  84:.\main.c      ****             OutMux_Select(1);
 153              		.loc 1 84 0
 154 00d4 0120     		movs	r0, #1
 155 00d6 FFF7FEFF 		bl	OutMux_FastSelect
  85:.\main.c      ****              
  86:.\main.c      ****          break;
 156              		.loc 1 86 0
 157 00da 1EE0     		b	.L13
 158              	.L10:
  87:.\main.c      ****             
  88:.\main.c      ****          case 16:
  89:.\main.c      ****             
  90:.\main.c      ****         Control_Reg_Write(2); //0010
 159              		.loc 1 90 0
 160 00dc 0220     		movs	r0, #2
 161 00de FFF7FEFF 		bl	Control_Reg_Write
  91:.\main.c      ****         OutMux_Select(2);            
 162              		.loc 1 91 0
 163 00e2 0220     		movs	r0, #2
 164 00e4 FFF7FEFF 		bl	OutMux_FastSelect
  92:.\main.c      ****             
  93:.\main.c      ****          break;
 165              		.loc 1 93 0
 166 00e8 17E0     		b	.L13
 167              	.L8:
  94:.\main.c      ****             
  95:.\main.c      ****          case 32:
  96:.\main.c      ****             
  97:.\main.c      ****         Control_Reg_Write(4); //0100
 168              		.loc 1 97 0
 169 00ea 0420     		movs	r0, #4
 170 00ec FFF7FEFF 		bl	Control_Reg_Write
  98:.\main.c      ****         OutMux_Select(2);            
 171              		.loc 1 98 0
 172 00f0 0220     		movs	r0, #2
 173 00f2 FFF7FEFF 		bl	OutMux_FastSelect
  99:.\main.c      ****             
 100:.\main.c      ****          break;
 174              		.loc 1 100 0
 175 00f6 10E0     		b	.L13
 176              	.L11:
 101:.\main.c      ****             
 102:.\main.c      ****          case 64:
 103:.\main.c      ****             
 104:.\main.c      ****         Control_Reg_Write(4); //0100
 177              		.loc 1 104 0
 178 00f8 0420     		movs	r0, #4
 179 00fa FFF7FEFF 		bl	Control_Reg_Write
 105:.\main.c      ****         OutMux_Select(3);                       
 180              		.loc 1 105 0
ARM GAS  C:\Users\IEUser\AppData\Local\Temp\ccQwYCSj.s 			page 6


 181 00fe 0320     		movs	r0, #3
 182 0100 FFF7FEFF 		bl	OutMux_FastSelect
 106:.\main.c      ****             
 107:.\main.c      ****          break;
 183              		.loc 1 107 0
 184 0104 09E0     		b	.L13
 185              	.L12:
 108:.\main.c      ****             
 109:.\main.c      ****          case 128:
 110:.\main.c      ****             
 111:.\main.c      ****         Control_Reg_Write(8); //1000
 186              		.loc 1 111 0
 187 0106 0820     		movs	r0, #8
 188 0108 FFF7FEFF 		bl	Control_Reg_Write
 112:.\main.c      ****         OutMux_Select(3);                 
 189              		.loc 1 112 0
 190 010c 0320     		movs	r0, #3
 191 010e FFF7FEFF 		bl	OutMux_FastSelect
 113:.\main.c      ****             
 114:.\main.c      ****          break;
 192              		.loc 1 114 0
 193 0112 02E0     		b	.L13
 194              	.L2:
 115:.\main.c      ****             
 116:.\main.c      ****          default:
 117:.\main.c      ****             
 118:.\main.c      ****             OutMux_DisconnectAll();
 195              		.loc 1 118 0
 196 0114 FFF7FEFF 		bl	OutMux_DisconnectAll
 119:.\main.c      ****             
 120:.\main.c      ****          break;
 197              		.loc 1 120 0
 198 0118 00BF     		nop
 199              	.L13:
 121:.\main.c      ****             
 122:.\main.c      ****         }
 123:.\main.c      ****         
 124:.\main.c      ****         Pot_A_val = Pot_A_val*20/1024;
 200              		.loc 1 124 0
 201 011a B7F90620 		ldrsh	r2, [r7, #6]
 202 011e 1346     		mov	r3, r2
 203 0120 9B00     		lsls	r3, r3, #2
 204 0122 1344     		add	r3, r3, r2
 205 0124 9B00     		lsls	r3, r3, #2
 206 0126 002B     		cmp	r3, #0
 207 0128 01DA     		bge	.L14
 208 012a 03F2FF33 		addw	r3, r3, #1023
 209              	.L14:
 210 012e 9B12     		asrs	r3, r3, #10
 211 0130 FB80     		strh	r3, [r7, #6]	@ movhi
 125:.\main.c      ****         Pot_B_val = Pot_B_val*3/1024;
 212              		.loc 1 125 0
 213 0132 B7F90420 		ldrsh	r2, [r7, #4]
 214 0136 1346     		mov	r3, r2
 215 0138 5B00     		lsls	r3, r3, #1
 216 013a 1344     		add	r3, r3, r2
 217 013c 002B     		cmp	r3, #0
ARM GAS  C:\Users\IEUser\AppData\Local\Temp\ccQwYCSj.s 			page 7


 218 013e 01DA     		bge	.L15
 219 0140 03F2FF33 		addw	r3, r3, #1023
 220              	.L15:
 221 0144 9B12     		asrs	r3, r3, #10
 222 0146 BB80     		strh	r3, [r7, #4]	@ movhi
 126:.\main.c      ****                 
 127:.\main.c      ****         if(Pot_A_val > 1){
 223              		.loc 1 127 0
 224 0148 B7F90630 		ldrsh	r3, [r7, #6]
 225 014c 012B     		cmp	r3, #1
 226 014e 16DD     		ble	.L16
 128:.\main.c      ****             
 129:.\main.c      ****             CyDelay(Pot_A_val*5);
 227              		.loc 1 129 0
 228 0150 B7F90620 		ldrsh	r2, [r7, #6]
 229 0154 1346     		mov	r3, r2
 230 0156 9B00     		lsls	r3, r3, #2
 231 0158 1344     		add	r3, r3, r2
 232 015a 1846     		mov	r0, r3
 233 015c FFF7FEFF 		bl	CyDelay
 130:.\main.c      ****             Tremolo_Select(1);
 234              		.loc 1 130 0
 235 0160 0120     		movs	r0, #1
 236 0162 FFF7FEFF 		bl	Tremolo_Select
 131:.\main.c      ****             CyDelay(Pot_A_val*5);
 237              		.loc 1 131 0
 238 0166 B7F90620 		ldrsh	r2, [r7, #6]
 239 016a 1346     		mov	r3, r2
 240 016c 9B00     		lsls	r3, r3, #2
 241 016e 1344     		add	r3, r3, r2
 242 0170 1846     		mov	r0, r3
 243 0172 FFF7FEFF 		bl	CyDelay
 132:.\main.c      ****             Tremolo_Select(0);
 244              		.loc 1 132 0
 245 0176 0020     		movs	r0, #0
 246 0178 FFF7FEFF 		bl	Tremolo_Select
 247 017c 02E0     		b	.L17
 248              	.L16:
 133:.\main.c      ****             
 134:.\main.c      ****         }else{
 135:.\main.c      ****             
 136:.\main.c      ****             Tremolo_Select(0);
 249              		.loc 1 136 0
 250 017e 0020     		movs	r0, #0
 251 0180 FFF7FEFF 		bl	Tremolo_Select
 252              	.L17:
 137:.\main.c      ****             
 138:.\main.c      ****         }
 139:.\main.c      ****         
 140:.\main.c      ****         switch(Pot_B_val){
 253              		.loc 1 140 0
 254 0184 B7F90430 		ldrsh	r3, [r7, #4]
 255 0188 012B     		cmp	r3, #1
 256 018a 07D0     		beq	.L19
 257 018c 022B     		cmp	r3, #2
 258 018e 09D0     		beq	.L20
 259 0190 002B     		cmp	r3, #0
ARM GAS  C:\Users\IEUser\AppData\Local\Temp\ccQwYCSj.s 			page 8


 260 0192 0BD1     		bne	.L24
 141:.\main.c      ****             
 142:.\main.c      ****          case 0: 
 143:.\main.c      ****             Amp_SetGain(Amp_GAIN_01);
 261              		.loc 1 143 0
 262 0194 0020     		movs	r0, #0
 263 0196 FFF7FEFF 		bl	Amp_SetGain
 144:.\main.c      ****             break;
 264              		.loc 1 144 0
 265 019a 0BE0     		b	.L22
 266              	.L19:
 145:.\main.c      ****             
 146:.\main.c      ****          case 1:
 147:.\main.c      ****             Amp_SetGain(Amp_GAIN_02);
 267              		.loc 1 147 0
 268 019c 0120     		movs	r0, #1
 269 019e FFF7FEFF 		bl	Amp_SetGain
 148:.\main.c      ****             break;
 270              		.loc 1 148 0
 271 01a2 07E0     		b	.L22
 272              	.L20:
 149:.\main.c      ****             
 150:.\main.c      ****          case 2: 
 151:.\main.c      ****             Amp_SetGain(Amp_GAIN_04);
 273              		.loc 1 151 0
 274 01a4 0220     		movs	r0, #2
 275 01a6 FFF7FEFF 		bl	Amp_SetGain
 152:.\main.c      ****             break;
 276              		.loc 1 152 0
 277 01aa 03E0     		b	.L22
 278              	.L24:
 153:.\main.c      ****             
 154:.\main.c      ****          default:
 155:.\main.c      ****             Amp_SetGain(Amp_GAIN_01);
 279              		.loc 1 155 0
 280 01ac 0020     		movs	r0, #0
 281 01ae FFF7FEFF 		bl	Amp_SetGain
 156:.\main.c      ****             break;
 282              		.loc 1 156 0
 283 01b2 00BF     		nop
 284              	.L22:
 157:.\main.c      ****                        
 158:.\main.c      ****         }
 159:.\main.c      ****         
 160:.\main.c      ****     }
 285              		.loc 1 160 0
 286 01b4 3CE7     		b	.L23
 287              		.cfi_endproc
 288              	.LFE56:
 289              		.size	main, .-main
 290 01b6 00BF     		.text
 291              	.Letext0:
 292              		.file 2 "c:\\program files\\cypress\\psoc creator\\3.2\\psoc creator\\import\\gnu\\arm\\4.8.4\\arm
 293              		.file 3 "c:\\program files\\cypress\\psoc creator\\3.2\\psoc creator\\import\\gnu\\arm\\4.8.4\\arm
 294              		.file 4 "Generated_Source\\PSoC5/cytypes.h"
 295              		.file 5 "Generated_Source\\PSoC5/core_cm3.h"